
kernel/kernel:     file format elf64-littleriscv


Disassembly of section .text:

0000000080000000 <_entry>:
    80000000:	0000a117          	auipc	sp,0xa
    80000004:	d5010113          	addi	sp,sp,-688 # 80009d50 <stack0>
    80000008:	6505                	lui	a0,0x1
    8000000a:	f14025f3          	csrr	a1,mhartid
    8000000e:	0585                	addi	a1,a1,1
    80000010:	02b50533          	mul	a0,a0,a1
    80000014:	912a                	add	sp,sp,a0
    80000016:	078000ef          	jal	ra,8000008e <start>

000000008000001a <spin>:
    8000001a:	a001                	j	8000001a <spin>

000000008000001c <timerinit>:
    8000001c:	1141                	addi	sp,sp,-16
    8000001e:	e422                	sd	s0,8(sp)
    80000020:	0800                	addi	s0,sp,16
    80000022:	f14027f3          	csrr	a5,mhartid
    80000026:	0007869b          	sext.w	a3,a5
    8000002a:	0037979b          	slliw	a5,a5,0x3
    8000002e:	02004737          	lui	a4,0x2004
    80000032:	97ba                	add	a5,a5,a4
    80000034:	0200c737          	lui	a4,0x200c
    80000038:	ff873583          	ld	a1,-8(a4) # 200bff8 <_entry-0x7dff4008>
    8000003c:	000f4637          	lui	a2,0xf4
    80000040:	24060613          	addi	a2,a2,576 # f4240 <_entry-0x7ff0bdc0>
    80000044:	95b2                	add	a1,a1,a2
    80000046:	e38c                	sd	a1,0(a5)
    80000048:	00269713          	slli	a4,a3,0x2
    8000004c:	9736                	add	a4,a4,a3
    8000004e:	00371693          	slli	a3,a4,0x3
    80000052:	0000a717          	auipc	a4,0xa
    80000056:	bbe70713          	addi	a4,a4,-1090 # 80009c10 <timer_scratch>
    8000005a:	9736                	add	a4,a4,a3
    8000005c:	ef1c                	sd	a5,24(a4)
    8000005e:	f310                	sd	a2,32(a4)
    80000060:	34071073          	csrw	mscratch,a4
    80000064:	00007797          	auipc	a5,0x7
    80000068:	a6c78793          	addi	a5,a5,-1428 # 80006ad0 <timervec>
    8000006c:	30579073          	csrw	mtvec,a5
    80000070:	300027f3          	csrr	a5,mstatus
    80000074:	0087e793          	ori	a5,a5,8
    80000078:	30079073          	csrw	mstatus,a5
    8000007c:	304027f3          	csrr	a5,mie
    80000080:	0807e793          	ori	a5,a5,128
    80000084:	30479073          	csrw	mie,a5
    80000088:	6422                	ld	s0,8(sp)
    8000008a:	0141                	addi	sp,sp,16
    8000008c:	8082                	ret

000000008000008e <start>:
    8000008e:	1141                	addi	sp,sp,-16
    80000090:	e406                	sd	ra,8(sp)
    80000092:	e022                	sd	s0,0(sp)
    80000094:	0800                	addi	s0,sp,16
    80000096:	300027f3          	csrr	a5,mstatus
    8000009a:	7779                	lui	a4,0xffffe
    8000009c:	7ff70713          	addi	a4,a4,2047 # ffffffffffffe7ff <end+0xffffffff7fdb776f>
    800000a0:	8ff9                	and	a5,a5,a4
    800000a2:	6705                	lui	a4,0x1
    800000a4:	80070713          	addi	a4,a4,-2048 # 800 <_entry-0x7ffff800>
    800000a8:	8fd9                	or	a5,a5,a4
    800000aa:	30079073          	csrw	mstatus,a5
    800000ae:	00001797          	auipc	a5,0x1
    800000b2:	fea78793          	addi	a5,a5,-22 # 80001098 <main>
    800000b6:	34179073          	csrw	mepc,a5
    800000ba:	4781                	li	a5,0
    800000bc:	18079073          	csrw	satp,a5
    800000c0:	67c1                	lui	a5,0x10
    800000c2:	17fd                	addi	a5,a5,-1
    800000c4:	30279073          	csrw	medeleg,a5
    800000c8:	30379073          	csrw	mideleg,a5
    800000cc:	104027f3          	csrr	a5,sie
    800000d0:	2227e793          	ori	a5,a5,546
    800000d4:	10479073          	csrw	sie,a5
    800000d8:	57fd                	li	a5,-1
    800000da:	83a9                	srli	a5,a5,0xa
    800000dc:	3b079073          	csrw	pmpaddr0,a5
    800000e0:	47bd                	li	a5,15
    800000e2:	3a079073          	csrw	pmpcfg0,a5
    800000e6:	00000097          	auipc	ra,0x0
    800000ea:	f36080e7          	jalr	-202(ra) # 8000001c <timerinit>
    800000ee:	f14027f3          	csrr	a5,mhartid
    800000f2:	2781                	sext.w	a5,a5
    800000f4:	823e                	mv	tp,a5
    800000f6:	30200073          	mret
    800000fa:	60a2                	ld	ra,8(sp)
    800000fc:	6402                	ld	s0,0(sp)
    800000fe:	0141                	addi	sp,sp,16
    80000100:	8082                	ret

0000000080000102 <consolewrite>:
    80000102:	715d                	addi	sp,sp,-80
    80000104:	e486                	sd	ra,72(sp)
    80000106:	e0a2                	sd	s0,64(sp)
    80000108:	fc26                	sd	s1,56(sp)
    8000010a:	f84a                	sd	s2,48(sp)
    8000010c:	f44e                	sd	s3,40(sp)
    8000010e:	f052                	sd	s4,32(sp)
    80000110:	ec56                	sd	s5,24(sp)
    80000112:	0880                	addi	s0,sp,80
    80000114:	04c05663          	blez	a2,80000160 <consolewrite+0x5e>
    80000118:	8a2a                	mv	s4,a0
    8000011a:	84ae                	mv	s1,a1
    8000011c:	89b2                	mv	s3,a2
    8000011e:	4901                	li	s2,0
    80000120:	5afd                	li	s5,-1
    80000122:	4685                	li	a3,1
    80000124:	8626                	mv	a2,s1
    80000126:	85d2                	mv	a1,s4
    80000128:	fbf40513          	addi	a0,s0,-65
    8000012c:	00003097          	auipc	ra,0x3
    80000130:	860080e7          	jalr	-1952(ra) # 8000298c <either_copyin>
    80000134:	01550c63          	beq	a0,s5,8000014c <consolewrite+0x4a>
    80000138:	fbf44503          	lbu	a0,-65(s0)
    8000013c:	00000097          	auipc	ra,0x0
    80000140:	794080e7          	jalr	1940(ra) # 800008d0 <uartputc>
    80000144:	2905                	addiw	s2,s2,1
    80000146:	0485                	addi	s1,s1,1
    80000148:	fd299de3          	bne	s3,s2,80000122 <consolewrite+0x20>
    8000014c:	854a                	mv	a0,s2
    8000014e:	60a6                	ld	ra,72(sp)
    80000150:	6406                	ld	s0,64(sp)
    80000152:	74e2                	ld	s1,56(sp)
    80000154:	7942                	ld	s2,48(sp)
    80000156:	79a2                	ld	s3,40(sp)
    80000158:	7a02                	ld	s4,32(sp)
    8000015a:	6ae2                	ld	s5,24(sp)
    8000015c:	6161                	addi	sp,sp,80
    8000015e:	8082                	ret
    80000160:	4901                	li	s2,0
    80000162:	b7ed                	j	8000014c <consolewrite+0x4a>

0000000080000164 <consoleread>:
    80000164:	7119                	addi	sp,sp,-128
    80000166:	fc86                	sd	ra,120(sp)
    80000168:	f8a2                	sd	s0,112(sp)
    8000016a:	f4a6                	sd	s1,104(sp)
    8000016c:	f0ca                	sd	s2,96(sp)
    8000016e:	ecce                	sd	s3,88(sp)
    80000170:	e8d2                	sd	s4,80(sp)
    80000172:	e4d6                	sd	s5,72(sp)
    80000174:	e0da                	sd	s6,64(sp)
    80000176:	fc5e                	sd	s7,56(sp)
    80000178:	f862                	sd	s8,48(sp)
    8000017a:	f466                	sd	s9,40(sp)
    8000017c:	f06a                	sd	s10,32(sp)
    8000017e:	ec6e                	sd	s11,24(sp)
    80000180:	0100                	addi	s0,sp,128
    80000182:	8b2a                	mv	s6,a0
    80000184:	8aae                	mv	s5,a1
    80000186:	8a32                	mv	s4,a2
    80000188:	00060b9b          	sext.w	s7,a2
    8000018c:	00012517          	auipc	a0,0x12
    80000190:	bc450513          	addi	a0,a0,-1084 # 80011d50 <cons>
    80000194:	00001097          	auipc	ra,0x1
    80000198:	c5a080e7          	jalr	-934(ra) # 80000dee <acquire>
    8000019c:	00012497          	auipc	s1,0x12
    800001a0:	bb448493          	addi	s1,s1,-1100 # 80011d50 <cons>
    800001a4:	89a6                	mv	s3,s1
    800001a6:	00012917          	auipc	s2,0x12
    800001aa:	c4290913          	addi	s2,s2,-958 # 80011de8 <cons+0x98>
    800001ae:	4c91                	li	s9,4
    800001b0:	5d7d                	li	s10,-1
    800001b2:	4da9                	li	s11,10
    800001b4:	07405b63          	blez	s4,8000022a <consoleread+0xc6>
    800001b8:	0984a783          	lw	a5,152(s1)
    800001bc:	09c4a703          	lw	a4,156(s1)
    800001c0:	02f71763          	bne	a4,a5,800001ee <consoleread+0x8a>
    800001c4:	00002097          	auipc	ra,0x2
    800001c8:	c54080e7          	jalr	-940(ra) # 80001e18 <myproc>
    800001cc:	00002097          	auipc	ra,0x2
    800001d0:	60a080e7          	jalr	1546(ra) # 800027d6 <killed>
    800001d4:	e535                	bnez	a0,80000240 <consoleread+0xdc>
    800001d6:	85ce                	mv	a1,s3
    800001d8:	854a                	mv	a0,s2
    800001da:	00002097          	auipc	ra,0x2
    800001de:	320080e7          	jalr	800(ra) # 800024fa <sleep>
    800001e2:	0984a783          	lw	a5,152(s1)
    800001e6:	09c4a703          	lw	a4,156(s1)
    800001ea:	fcf70de3          	beq	a4,a5,800001c4 <consoleread+0x60>
    800001ee:	0017871b          	addiw	a4,a5,1
    800001f2:	08e4ac23          	sw	a4,152(s1)
    800001f6:	07f7f713          	andi	a4,a5,127
    800001fa:	9726                	add	a4,a4,s1
    800001fc:	01874703          	lbu	a4,24(a4)
    80000200:	00070c1b          	sext.w	s8,a4
    80000204:	079c0663          	beq	s8,s9,80000270 <consoleread+0x10c>
    80000208:	f8e407a3          	sb	a4,-113(s0)
    8000020c:	4685                	li	a3,1
    8000020e:	f8f40613          	addi	a2,s0,-113
    80000212:	85d6                	mv	a1,s5
    80000214:	855a                	mv	a0,s6
    80000216:	00002097          	auipc	ra,0x2
    8000021a:	720080e7          	jalr	1824(ra) # 80002936 <either_copyout>
    8000021e:	01a50663          	beq	a0,s10,8000022a <consoleread+0xc6>
    80000222:	0a85                	addi	s5,s5,1
    80000224:	3a7d                	addiw	s4,s4,-1
    80000226:	f9bc17e3          	bne	s8,s11,800001b4 <consoleread+0x50>
    8000022a:	00012517          	auipc	a0,0x12
    8000022e:	b2650513          	addi	a0,a0,-1242 # 80011d50 <cons>
    80000232:	00001097          	auipc	ra,0x1
    80000236:	c70080e7          	jalr	-912(ra) # 80000ea2 <release>
    8000023a:	414b853b          	subw	a0,s7,s4
    8000023e:	a811                	j	80000252 <consoleread+0xee>
    80000240:	00012517          	auipc	a0,0x12
    80000244:	b1050513          	addi	a0,a0,-1264 # 80011d50 <cons>
    80000248:	00001097          	auipc	ra,0x1
    8000024c:	c5a080e7          	jalr	-934(ra) # 80000ea2 <release>
    80000250:	557d                	li	a0,-1
    80000252:	70e6                	ld	ra,120(sp)
    80000254:	7446                	ld	s0,112(sp)
    80000256:	74a6                	ld	s1,104(sp)
    80000258:	7906                	ld	s2,96(sp)
    8000025a:	69e6                	ld	s3,88(sp)
    8000025c:	6a46                	ld	s4,80(sp)
    8000025e:	6aa6                	ld	s5,72(sp)
    80000260:	6b06                	ld	s6,64(sp)
    80000262:	7be2                	ld	s7,56(sp)
    80000264:	7c42                	ld	s8,48(sp)
    80000266:	7ca2                	ld	s9,40(sp)
    80000268:	7d02                	ld	s10,32(sp)
    8000026a:	6de2                	ld	s11,24(sp)
    8000026c:	6109                	addi	sp,sp,128
    8000026e:	8082                	ret
    80000270:	000a071b          	sext.w	a4,s4
    80000274:	fb777be3          	bgeu	a4,s7,8000022a <consoleread+0xc6>
    80000278:	00012717          	auipc	a4,0x12
    8000027c:	b6f72823          	sw	a5,-1168(a4) # 80011de8 <cons+0x98>
    80000280:	b76d                	j	8000022a <consoleread+0xc6>

0000000080000282 <consputc>:
    80000282:	1141                	addi	sp,sp,-16
    80000284:	e406                	sd	ra,8(sp)
    80000286:	e022                	sd	s0,0(sp)
    80000288:	0800                	addi	s0,sp,16
    8000028a:	10000793          	li	a5,256
    8000028e:	00f50a63          	beq	a0,a5,800002a2 <consputc+0x20>
    80000292:	00000097          	auipc	ra,0x0
    80000296:	564080e7          	jalr	1380(ra) # 800007f6 <uartputc_sync>
    8000029a:	60a2                	ld	ra,8(sp)
    8000029c:	6402                	ld	s0,0(sp)
    8000029e:	0141                	addi	sp,sp,16
    800002a0:	8082                	ret
    800002a2:	4521                	li	a0,8
    800002a4:	00000097          	auipc	ra,0x0
    800002a8:	552080e7          	jalr	1362(ra) # 800007f6 <uartputc_sync>
    800002ac:	02000513          	li	a0,32
    800002b0:	00000097          	auipc	ra,0x0
    800002b4:	546080e7          	jalr	1350(ra) # 800007f6 <uartputc_sync>
    800002b8:	4521                	li	a0,8
    800002ba:	00000097          	auipc	ra,0x0
    800002be:	53c080e7          	jalr	1340(ra) # 800007f6 <uartputc_sync>
    800002c2:	bfe1                	j	8000029a <consputc+0x18>

00000000800002c4 <consoleintr>:
    800002c4:	1101                	addi	sp,sp,-32
    800002c6:	ec06                	sd	ra,24(sp)
    800002c8:	e822                	sd	s0,16(sp)
    800002ca:	e426                	sd	s1,8(sp)
    800002cc:	e04a                	sd	s2,0(sp)
    800002ce:	1000                	addi	s0,sp,32
    800002d0:	84aa                	mv	s1,a0
    800002d2:	00012517          	auipc	a0,0x12
    800002d6:	a7e50513          	addi	a0,a0,-1410 # 80011d50 <cons>
    800002da:	00001097          	auipc	ra,0x1
    800002de:	b14080e7          	jalr	-1260(ra) # 80000dee <acquire>
    800002e2:	47d5                	li	a5,21
    800002e4:	0af48663          	beq	s1,a5,80000390 <consoleintr+0xcc>
    800002e8:	0297ca63          	blt	a5,s1,8000031c <consoleintr+0x58>
    800002ec:	47a1                	li	a5,8
    800002ee:	0ef48763          	beq	s1,a5,800003dc <consoleintr+0x118>
    800002f2:	47c1                	li	a5,16
    800002f4:	10f49a63          	bne	s1,a5,80000408 <consoleintr+0x144>
    800002f8:	00002097          	auipc	ra,0x2
    800002fc:	6ea080e7          	jalr	1770(ra) # 800029e2 <procdump>
    80000300:	00012517          	auipc	a0,0x12
    80000304:	a5050513          	addi	a0,a0,-1456 # 80011d50 <cons>
    80000308:	00001097          	auipc	ra,0x1
    8000030c:	b9a080e7          	jalr	-1126(ra) # 80000ea2 <release>
    80000310:	60e2                	ld	ra,24(sp)
    80000312:	6442                	ld	s0,16(sp)
    80000314:	64a2                	ld	s1,8(sp)
    80000316:	6902                	ld	s2,0(sp)
    80000318:	6105                	addi	sp,sp,32
    8000031a:	8082                	ret
    8000031c:	07f00793          	li	a5,127
    80000320:	0af48e63          	beq	s1,a5,800003dc <consoleintr+0x118>
    80000324:	00012717          	auipc	a4,0x12
    80000328:	a2c70713          	addi	a4,a4,-1492 # 80011d50 <cons>
    8000032c:	0a072783          	lw	a5,160(a4)
    80000330:	09872703          	lw	a4,152(a4)
    80000334:	9f99                	subw	a5,a5,a4
    80000336:	07f00713          	li	a4,127
    8000033a:	fcf763e3          	bltu	a4,a5,80000300 <consoleintr+0x3c>
    8000033e:	47b5                	li	a5,13
    80000340:	0cf48763          	beq	s1,a5,8000040e <consoleintr+0x14a>
    80000344:	8526                	mv	a0,s1
    80000346:	00000097          	auipc	ra,0x0
    8000034a:	f3c080e7          	jalr	-196(ra) # 80000282 <consputc>
    8000034e:	00012797          	auipc	a5,0x12
    80000352:	a0278793          	addi	a5,a5,-1534 # 80011d50 <cons>
    80000356:	0a07a683          	lw	a3,160(a5)
    8000035a:	0016871b          	addiw	a4,a3,1
    8000035e:	0007061b          	sext.w	a2,a4
    80000362:	0ae7a023          	sw	a4,160(a5)
    80000366:	07f6f693          	andi	a3,a3,127
    8000036a:	97b6                	add	a5,a5,a3
    8000036c:	00978c23          	sb	s1,24(a5)
    80000370:	47a9                	li	a5,10
    80000372:	0cf48563          	beq	s1,a5,8000043c <consoleintr+0x178>
    80000376:	4791                	li	a5,4
    80000378:	0cf48263          	beq	s1,a5,8000043c <consoleintr+0x178>
    8000037c:	00012797          	auipc	a5,0x12
    80000380:	a6c7a783          	lw	a5,-1428(a5) # 80011de8 <cons+0x98>
    80000384:	9f1d                	subw	a4,a4,a5
    80000386:	08000793          	li	a5,128
    8000038a:	f6f71be3          	bne	a4,a5,80000300 <consoleintr+0x3c>
    8000038e:	a07d                	j	8000043c <consoleintr+0x178>
    80000390:	00012717          	auipc	a4,0x12
    80000394:	9c070713          	addi	a4,a4,-1600 # 80011d50 <cons>
    80000398:	0a072783          	lw	a5,160(a4)
    8000039c:	09c72703          	lw	a4,156(a4)
    800003a0:	00012497          	auipc	s1,0x12
    800003a4:	9b048493          	addi	s1,s1,-1616 # 80011d50 <cons>
    800003a8:	4929                	li	s2,10
    800003aa:	f4f70be3          	beq	a4,a5,80000300 <consoleintr+0x3c>
    800003ae:	37fd                	addiw	a5,a5,-1
    800003b0:	07f7f713          	andi	a4,a5,127
    800003b4:	9726                	add	a4,a4,s1
    800003b6:	01874703          	lbu	a4,24(a4)
    800003ba:	f52703e3          	beq	a4,s2,80000300 <consoleintr+0x3c>
    800003be:	0af4a023          	sw	a5,160(s1)
    800003c2:	10000513          	li	a0,256
    800003c6:	00000097          	auipc	ra,0x0
    800003ca:	ebc080e7          	jalr	-324(ra) # 80000282 <consputc>
    800003ce:	0a04a783          	lw	a5,160(s1)
    800003d2:	09c4a703          	lw	a4,156(s1)
    800003d6:	fcf71ce3          	bne	a4,a5,800003ae <consoleintr+0xea>
    800003da:	b71d                	j	80000300 <consoleintr+0x3c>
    800003dc:	00012717          	auipc	a4,0x12
    800003e0:	97470713          	addi	a4,a4,-1676 # 80011d50 <cons>
    800003e4:	0a072783          	lw	a5,160(a4)
    800003e8:	09c72703          	lw	a4,156(a4)
    800003ec:	f0f70ae3          	beq	a4,a5,80000300 <consoleintr+0x3c>
    800003f0:	37fd                	addiw	a5,a5,-1
    800003f2:	00012717          	auipc	a4,0x12
    800003f6:	9ef72f23          	sw	a5,-1538(a4) # 80011df0 <cons+0xa0>
    800003fa:	10000513          	li	a0,256
    800003fe:	00000097          	auipc	ra,0x0
    80000402:	e84080e7          	jalr	-380(ra) # 80000282 <consputc>
    80000406:	bded                	j	80000300 <consoleintr+0x3c>
    80000408:	ee048ce3          	beqz	s1,80000300 <consoleintr+0x3c>
    8000040c:	bf21                	j	80000324 <consoleintr+0x60>
    8000040e:	4529                	li	a0,10
    80000410:	00000097          	auipc	ra,0x0
    80000414:	e72080e7          	jalr	-398(ra) # 80000282 <consputc>
    80000418:	00012797          	auipc	a5,0x12
    8000041c:	93878793          	addi	a5,a5,-1736 # 80011d50 <cons>
    80000420:	0a07a703          	lw	a4,160(a5)
    80000424:	0017069b          	addiw	a3,a4,1
    80000428:	0006861b          	sext.w	a2,a3
    8000042c:	0ad7a023          	sw	a3,160(a5)
    80000430:	07f77713          	andi	a4,a4,127
    80000434:	97ba                	add	a5,a5,a4
    80000436:	4729                	li	a4,10
    80000438:	00e78c23          	sb	a4,24(a5)
    8000043c:	00012797          	auipc	a5,0x12
    80000440:	9ac7a823          	sw	a2,-1616(a5) # 80011dec <cons+0x9c>
    80000444:	00012517          	auipc	a0,0x12
    80000448:	9a450513          	addi	a0,a0,-1628 # 80011de8 <cons+0x98>
    8000044c:	00002097          	auipc	ra,0x2
    80000450:	124080e7          	jalr	292(ra) # 80002570 <wakeup>
    80000454:	b575                	j	80000300 <consoleintr+0x3c>

0000000080000456 <consoleinit>:
    80000456:	1141                	addi	sp,sp,-16
    80000458:	e406                	sd	ra,8(sp)
    8000045a:	e022                	sd	s0,0(sp)
    8000045c:	0800                	addi	s0,sp,16
    8000045e:	00009597          	auipc	a1,0x9
    80000462:	bb258593          	addi	a1,a1,-1102 # 80009010 <etext+0x10>
    80000466:	00012517          	auipc	a0,0x12
    8000046a:	8ea50513          	addi	a0,a0,-1814 # 80011d50 <cons>
    8000046e:	00001097          	auipc	ra,0x1
    80000472:	8f0080e7          	jalr	-1808(ra) # 80000d5e <initlock>
    80000476:	00000097          	auipc	ra,0x0
    8000047a:	330080e7          	jalr	816(ra) # 800007a6 <uartinit>
    8000047e:	00246797          	auipc	a5,0x246
    80000482:	a7a78793          	addi	a5,a5,-1414 # 80245ef8 <devsw>
    80000486:	00000717          	auipc	a4,0x0
    8000048a:	cde70713          	addi	a4,a4,-802 # 80000164 <consoleread>
    8000048e:	eb98                	sd	a4,16(a5)
    80000490:	00000717          	auipc	a4,0x0
    80000494:	c7270713          	addi	a4,a4,-910 # 80000102 <consolewrite>
    80000498:	ef98                	sd	a4,24(a5)
    8000049a:	60a2                	ld	ra,8(sp)
    8000049c:	6402                	ld	s0,0(sp)
    8000049e:	0141                	addi	sp,sp,16
    800004a0:	8082                	ret

00000000800004a2 <printint>:
    800004a2:	7179                	addi	sp,sp,-48
    800004a4:	f406                	sd	ra,40(sp)
    800004a6:	f022                	sd	s0,32(sp)
    800004a8:	ec26                	sd	s1,24(sp)
    800004aa:	e84a                	sd	s2,16(sp)
    800004ac:	1800                	addi	s0,sp,48
    800004ae:	c219                	beqz	a2,800004b4 <printint+0x12>
    800004b0:	08054663          	bltz	a0,8000053c <printint+0x9a>
    800004b4:	2501                	sext.w	a0,a0
    800004b6:	4881                	li	a7,0
    800004b8:	fd040693          	addi	a3,s0,-48
    800004bc:	4701                	li	a4,0
    800004be:	2581                	sext.w	a1,a1
    800004c0:	00009617          	auipc	a2,0x9
    800004c4:	b8060613          	addi	a2,a2,-1152 # 80009040 <digits>
    800004c8:	883a                	mv	a6,a4
    800004ca:	2705                	addiw	a4,a4,1
    800004cc:	02b577bb          	remuw	a5,a0,a1
    800004d0:	1782                	slli	a5,a5,0x20
    800004d2:	9381                	srli	a5,a5,0x20
    800004d4:	97b2                	add	a5,a5,a2
    800004d6:	0007c783          	lbu	a5,0(a5)
    800004da:	00f68023          	sb	a5,0(a3)
    800004de:	0005079b          	sext.w	a5,a0
    800004e2:	02b5553b          	divuw	a0,a0,a1
    800004e6:	0685                	addi	a3,a3,1
    800004e8:	feb7f0e3          	bgeu	a5,a1,800004c8 <printint+0x26>
    800004ec:	00088b63          	beqz	a7,80000502 <printint+0x60>
    800004f0:	fe040793          	addi	a5,s0,-32
    800004f4:	973e                	add	a4,a4,a5
    800004f6:	02d00793          	li	a5,45
    800004fa:	fef70823          	sb	a5,-16(a4)
    800004fe:	0028071b          	addiw	a4,a6,2
    80000502:	02e05763          	blez	a4,80000530 <printint+0x8e>
    80000506:	fd040793          	addi	a5,s0,-48
    8000050a:	00e784b3          	add	s1,a5,a4
    8000050e:	fff78913          	addi	s2,a5,-1
    80000512:	993a                	add	s2,s2,a4
    80000514:	377d                	addiw	a4,a4,-1
    80000516:	1702                	slli	a4,a4,0x20
    80000518:	9301                	srli	a4,a4,0x20
    8000051a:	40e90933          	sub	s2,s2,a4
    8000051e:	fff4c503          	lbu	a0,-1(s1)
    80000522:	00000097          	auipc	ra,0x0
    80000526:	d60080e7          	jalr	-672(ra) # 80000282 <consputc>
    8000052a:	14fd                	addi	s1,s1,-1
    8000052c:	ff2499e3          	bne	s1,s2,8000051e <printint+0x7c>
    80000530:	70a2                	ld	ra,40(sp)
    80000532:	7402                	ld	s0,32(sp)
    80000534:	64e2                	ld	s1,24(sp)
    80000536:	6942                	ld	s2,16(sp)
    80000538:	6145                	addi	sp,sp,48
    8000053a:	8082                	ret
    8000053c:	40a0053b          	negw	a0,a0
    80000540:	4885                	li	a7,1
    80000542:	bf9d                	j	800004b8 <printint+0x16>

0000000080000544 <panic>:
    80000544:	1101                	addi	sp,sp,-32
    80000546:	ec06                	sd	ra,24(sp)
    80000548:	e822                	sd	s0,16(sp)
    8000054a:	e426                	sd	s1,8(sp)
    8000054c:	1000                	addi	s0,sp,32
    8000054e:	84aa                	mv	s1,a0
    80000550:	00012797          	auipc	a5,0x12
    80000554:	8c07a023          	sw	zero,-1856(a5) # 80011e10 <pr+0x18>
    80000558:	00009517          	auipc	a0,0x9
    8000055c:	ac050513          	addi	a0,a0,-1344 # 80009018 <etext+0x18>
    80000560:	00000097          	auipc	ra,0x0
    80000564:	02e080e7          	jalr	46(ra) # 8000058e <printf>
    80000568:	8526                	mv	a0,s1
    8000056a:	00000097          	auipc	ra,0x0
    8000056e:	024080e7          	jalr	36(ra) # 8000058e <printf>
    80000572:	00009517          	auipc	a0,0x9
    80000576:	bb650513          	addi	a0,a0,-1098 # 80009128 <digits+0xe8>
    8000057a:	00000097          	auipc	ra,0x0
    8000057e:	014080e7          	jalr	20(ra) # 8000058e <printf>
    80000582:	4785                	li	a5,1
    80000584:	00009717          	auipc	a4,0x9
    80000588:	64f72623          	sw	a5,1612(a4) # 80009bd0 <panicked>
    8000058c:	a001                	j	8000058c <panic+0x48>

000000008000058e <printf>:
    8000058e:	7131                	addi	sp,sp,-192
    80000590:	fc86                	sd	ra,120(sp)
    80000592:	f8a2                	sd	s0,112(sp)
    80000594:	f4a6                	sd	s1,104(sp)
    80000596:	f0ca                	sd	s2,96(sp)
    80000598:	ecce                	sd	s3,88(sp)
    8000059a:	e8d2                	sd	s4,80(sp)
    8000059c:	e4d6                	sd	s5,72(sp)
    8000059e:	e0da                	sd	s6,64(sp)
    800005a0:	fc5e                	sd	s7,56(sp)
    800005a2:	f862                	sd	s8,48(sp)
    800005a4:	f466                	sd	s9,40(sp)
    800005a6:	f06a                	sd	s10,32(sp)
    800005a8:	ec6e                	sd	s11,24(sp)
    800005aa:	0100                	addi	s0,sp,128
    800005ac:	8a2a                	mv	s4,a0
    800005ae:	e40c                	sd	a1,8(s0)
    800005b0:	e810                	sd	a2,16(s0)
    800005b2:	ec14                	sd	a3,24(s0)
    800005b4:	f018                	sd	a4,32(s0)
    800005b6:	f41c                	sd	a5,40(s0)
    800005b8:	03043823          	sd	a6,48(s0)
    800005bc:	03143c23          	sd	a7,56(s0)
    800005c0:	00012d97          	auipc	s11,0x12
    800005c4:	850dad83          	lw	s11,-1968(s11) # 80011e10 <pr+0x18>
    800005c8:	020d9b63          	bnez	s11,800005fe <printf+0x70>
    800005cc:	040a0263          	beqz	s4,80000610 <printf+0x82>
    800005d0:	00840793          	addi	a5,s0,8
    800005d4:	f8f43423          	sd	a5,-120(s0)
    800005d8:	000a4503          	lbu	a0,0(s4)
    800005dc:	16050263          	beqz	a0,80000740 <printf+0x1b2>
    800005e0:	4481                	li	s1,0
    800005e2:	02500a93          	li	s5,37
    800005e6:	07000b13          	li	s6,112
    800005ea:	4d41                	li	s10,16
    800005ec:	00009b97          	auipc	s7,0x9
    800005f0:	a54b8b93          	addi	s7,s7,-1452 # 80009040 <digits>
    800005f4:	07300c93          	li	s9,115
    800005f8:	06400c13          	li	s8,100
    800005fc:	a82d                	j	80000636 <printf+0xa8>
    800005fe:	00011517          	auipc	a0,0x11
    80000602:	7fa50513          	addi	a0,a0,2042 # 80011df8 <pr>
    80000606:	00000097          	auipc	ra,0x0
    8000060a:	7e8080e7          	jalr	2024(ra) # 80000dee <acquire>
    8000060e:	bf7d                	j	800005cc <printf+0x3e>
    80000610:	00009517          	auipc	a0,0x9
    80000614:	a1850513          	addi	a0,a0,-1512 # 80009028 <etext+0x28>
    80000618:	00000097          	auipc	ra,0x0
    8000061c:	f2c080e7          	jalr	-212(ra) # 80000544 <panic>
    80000620:	00000097          	auipc	ra,0x0
    80000624:	c62080e7          	jalr	-926(ra) # 80000282 <consputc>
    80000628:	2485                	addiw	s1,s1,1
    8000062a:	009a07b3          	add	a5,s4,s1
    8000062e:	0007c503          	lbu	a0,0(a5)
    80000632:	10050763          	beqz	a0,80000740 <printf+0x1b2>
    80000636:	ff5515e3          	bne	a0,s5,80000620 <printf+0x92>
    8000063a:	2485                	addiw	s1,s1,1
    8000063c:	009a07b3          	add	a5,s4,s1
    80000640:	0007c783          	lbu	a5,0(a5)
    80000644:	0007891b          	sext.w	s2,a5
    80000648:	cfe5                	beqz	a5,80000740 <printf+0x1b2>
    8000064a:	05678a63          	beq	a5,s6,8000069e <printf+0x110>
    8000064e:	02fb7663          	bgeu	s6,a5,8000067a <printf+0xec>
    80000652:	09978963          	beq	a5,s9,800006e4 <printf+0x156>
    80000656:	07800713          	li	a4,120
    8000065a:	0ce79863          	bne	a5,a4,8000072a <printf+0x19c>
    8000065e:	f8843783          	ld	a5,-120(s0)
    80000662:	00878713          	addi	a4,a5,8
    80000666:	f8e43423          	sd	a4,-120(s0)
    8000066a:	4605                	li	a2,1
    8000066c:	85ea                	mv	a1,s10
    8000066e:	4388                	lw	a0,0(a5)
    80000670:	00000097          	auipc	ra,0x0
    80000674:	e32080e7          	jalr	-462(ra) # 800004a2 <printint>
    80000678:	bf45                	j	80000628 <printf+0x9a>
    8000067a:	0b578263          	beq	a5,s5,8000071e <printf+0x190>
    8000067e:	0b879663          	bne	a5,s8,8000072a <printf+0x19c>
    80000682:	f8843783          	ld	a5,-120(s0)
    80000686:	00878713          	addi	a4,a5,8
    8000068a:	f8e43423          	sd	a4,-120(s0)
    8000068e:	4605                	li	a2,1
    80000690:	45a9                	li	a1,10
    80000692:	4388                	lw	a0,0(a5)
    80000694:	00000097          	auipc	ra,0x0
    80000698:	e0e080e7          	jalr	-498(ra) # 800004a2 <printint>
    8000069c:	b771                	j	80000628 <printf+0x9a>
    8000069e:	f8843783          	ld	a5,-120(s0)
    800006a2:	00878713          	addi	a4,a5,8
    800006a6:	f8e43423          	sd	a4,-120(s0)
    800006aa:	0007b983          	ld	s3,0(a5)
    800006ae:	03000513          	li	a0,48
    800006b2:	00000097          	auipc	ra,0x0
    800006b6:	bd0080e7          	jalr	-1072(ra) # 80000282 <consputc>
    800006ba:	07800513          	li	a0,120
    800006be:	00000097          	auipc	ra,0x0
    800006c2:	bc4080e7          	jalr	-1084(ra) # 80000282 <consputc>
    800006c6:	896a                	mv	s2,s10
    800006c8:	03c9d793          	srli	a5,s3,0x3c
    800006cc:	97de                	add	a5,a5,s7
    800006ce:	0007c503          	lbu	a0,0(a5)
    800006d2:	00000097          	auipc	ra,0x0
    800006d6:	bb0080e7          	jalr	-1104(ra) # 80000282 <consputc>
    800006da:	0992                	slli	s3,s3,0x4
    800006dc:	397d                	addiw	s2,s2,-1
    800006de:	fe0915e3          	bnez	s2,800006c8 <printf+0x13a>
    800006e2:	b799                	j	80000628 <printf+0x9a>
    800006e4:	f8843783          	ld	a5,-120(s0)
    800006e8:	00878713          	addi	a4,a5,8
    800006ec:	f8e43423          	sd	a4,-120(s0)
    800006f0:	0007b903          	ld	s2,0(a5)
    800006f4:	00090e63          	beqz	s2,80000710 <printf+0x182>
    800006f8:	00094503          	lbu	a0,0(s2)
    800006fc:	d515                	beqz	a0,80000628 <printf+0x9a>
    800006fe:	00000097          	auipc	ra,0x0
    80000702:	b84080e7          	jalr	-1148(ra) # 80000282 <consputc>
    80000706:	0905                	addi	s2,s2,1
    80000708:	00094503          	lbu	a0,0(s2)
    8000070c:	f96d                	bnez	a0,800006fe <printf+0x170>
    8000070e:	bf29                	j	80000628 <printf+0x9a>
    80000710:	00009917          	auipc	s2,0x9
    80000714:	91090913          	addi	s2,s2,-1776 # 80009020 <etext+0x20>
    80000718:	02800513          	li	a0,40
    8000071c:	b7cd                	j	800006fe <printf+0x170>
    8000071e:	8556                	mv	a0,s5
    80000720:	00000097          	auipc	ra,0x0
    80000724:	b62080e7          	jalr	-1182(ra) # 80000282 <consputc>
    80000728:	b701                	j	80000628 <printf+0x9a>
    8000072a:	8556                	mv	a0,s5
    8000072c:	00000097          	auipc	ra,0x0
    80000730:	b56080e7          	jalr	-1194(ra) # 80000282 <consputc>
    80000734:	854a                	mv	a0,s2
    80000736:	00000097          	auipc	ra,0x0
    8000073a:	b4c080e7          	jalr	-1204(ra) # 80000282 <consputc>
    8000073e:	b5ed                	j	80000628 <printf+0x9a>
    80000740:	020d9163          	bnez	s11,80000762 <printf+0x1d4>
    80000744:	70e6                	ld	ra,120(sp)
    80000746:	7446                	ld	s0,112(sp)
    80000748:	74a6                	ld	s1,104(sp)
    8000074a:	7906                	ld	s2,96(sp)
    8000074c:	69e6                	ld	s3,88(sp)
    8000074e:	6a46                	ld	s4,80(sp)
    80000750:	6aa6                	ld	s5,72(sp)
    80000752:	6b06                	ld	s6,64(sp)
    80000754:	7be2                	ld	s7,56(sp)
    80000756:	7c42                	ld	s8,48(sp)
    80000758:	7ca2                	ld	s9,40(sp)
    8000075a:	7d02                	ld	s10,32(sp)
    8000075c:	6de2                	ld	s11,24(sp)
    8000075e:	6129                	addi	sp,sp,192
    80000760:	8082                	ret
    80000762:	00011517          	auipc	a0,0x11
    80000766:	69650513          	addi	a0,a0,1686 # 80011df8 <pr>
    8000076a:	00000097          	auipc	ra,0x0
    8000076e:	738080e7          	jalr	1848(ra) # 80000ea2 <release>
    80000772:	bfc9                	j	80000744 <printf+0x1b6>

0000000080000774 <printfinit>:
    80000774:	1101                	addi	sp,sp,-32
    80000776:	ec06                	sd	ra,24(sp)
    80000778:	e822                	sd	s0,16(sp)
    8000077a:	e426                	sd	s1,8(sp)
    8000077c:	1000                	addi	s0,sp,32
    8000077e:	00011497          	auipc	s1,0x11
    80000782:	67a48493          	addi	s1,s1,1658 # 80011df8 <pr>
    80000786:	00009597          	auipc	a1,0x9
    8000078a:	8b258593          	addi	a1,a1,-1870 # 80009038 <etext+0x38>
    8000078e:	8526                	mv	a0,s1
    80000790:	00000097          	auipc	ra,0x0
    80000794:	5ce080e7          	jalr	1486(ra) # 80000d5e <initlock>
    80000798:	4785                	li	a5,1
    8000079a:	cc9c                	sw	a5,24(s1)
    8000079c:	60e2                	ld	ra,24(sp)
    8000079e:	6442                	ld	s0,16(sp)
    800007a0:	64a2                	ld	s1,8(sp)
    800007a2:	6105                	addi	sp,sp,32
    800007a4:	8082                	ret

00000000800007a6 <uartinit>:
    800007a6:	1141                	addi	sp,sp,-16
    800007a8:	e406                	sd	ra,8(sp)
    800007aa:	e022                	sd	s0,0(sp)
    800007ac:	0800                	addi	s0,sp,16
    800007ae:	100007b7          	lui	a5,0x10000
    800007b2:	000780a3          	sb	zero,1(a5) # 10000001 <_entry-0x6fffffff>
    800007b6:	f8000713          	li	a4,-128
    800007ba:	00e781a3          	sb	a4,3(a5)
    800007be:	470d                	li	a4,3
    800007c0:	00e78023          	sb	a4,0(a5)
    800007c4:	000780a3          	sb	zero,1(a5)
    800007c8:	00e781a3          	sb	a4,3(a5)
    800007cc:	469d                	li	a3,7
    800007ce:	00d78123          	sb	a3,2(a5)
    800007d2:	00e780a3          	sb	a4,1(a5)
    800007d6:	00009597          	auipc	a1,0x9
    800007da:	88258593          	addi	a1,a1,-1918 # 80009058 <digits+0x18>
    800007de:	00011517          	auipc	a0,0x11
    800007e2:	63a50513          	addi	a0,a0,1594 # 80011e18 <uart_tx_lock>
    800007e6:	00000097          	auipc	ra,0x0
    800007ea:	578080e7          	jalr	1400(ra) # 80000d5e <initlock>
    800007ee:	60a2                	ld	ra,8(sp)
    800007f0:	6402                	ld	s0,0(sp)
    800007f2:	0141                	addi	sp,sp,16
    800007f4:	8082                	ret

00000000800007f6 <uartputc_sync>:
    800007f6:	1101                	addi	sp,sp,-32
    800007f8:	ec06                	sd	ra,24(sp)
    800007fa:	e822                	sd	s0,16(sp)
    800007fc:	e426                	sd	s1,8(sp)
    800007fe:	1000                	addi	s0,sp,32
    80000800:	84aa                	mv	s1,a0
    80000802:	00000097          	auipc	ra,0x0
    80000806:	5a0080e7          	jalr	1440(ra) # 80000da2 <push_off>
    8000080a:	00009797          	auipc	a5,0x9
    8000080e:	3c67a783          	lw	a5,966(a5) # 80009bd0 <panicked>
    80000812:	10000737          	lui	a4,0x10000
    80000816:	c391                	beqz	a5,8000081a <uartputc_sync+0x24>
    80000818:	a001                	j	80000818 <uartputc_sync+0x22>
    8000081a:	00574783          	lbu	a5,5(a4) # 10000005 <_entry-0x6ffffffb>
    8000081e:	0ff7f793          	andi	a5,a5,255
    80000822:	0207f793          	andi	a5,a5,32
    80000826:	dbf5                	beqz	a5,8000081a <uartputc_sync+0x24>
    80000828:	0ff4f793          	andi	a5,s1,255
    8000082c:	10000737          	lui	a4,0x10000
    80000830:	00f70023          	sb	a5,0(a4) # 10000000 <_entry-0x70000000>
    80000834:	00000097          	auipc	ra,0x0
    80000838:	60e080e7          	jalr	1550(ra) # 80000e42 <pop_off>
    8000083c:	60e2                	ld	ra,24(sp)
    8000083e:	6442                	ld	s0,16(sp)
    80000840:	64a2                	ld	s1,8(sp)
    80000842:	6105                	addi	sp,sp,32
    80000844:	8082                	ret

0000000080000846 <uartstart>:
    80000846:	00009717          	auipc	a4,0x9
    8000084a:	39273703          	ld	a4,914(a4) # 80009bd8 <uart_tx_r>
    8000084e:	00009797          	auipc	a5,0x9
    80000852:	3927b783          	ld	a5,914(a5) # 80009be0 <uart_tx_w>
    80000856:	06e78c63          	beq	a5,a4,800008ce <uartstart+0x88>
    8000085a:	7139                	addi	sp,sp,-64
    8000085c:	fc06                	sd	ra,56(sp)
    8000085e:	f822                	sd	s0,48(sp)
    80000860:	f426                	sd	s1,40(sp)
    80000862:	f04a                	sd	s2,32(sp)
    80000864:	ec4e                	sd	s3,24(sp)
    80000866:	e852                	sd	s4,16(sp)
    80000868:	e456                	sd	s5,8(sp)
    8000086a:	0080                	addi	s0,sp,64
    8000086c:	10000937          	lui	s2,0x10000
    80000870:	00011a17          	auipc	s4,0x11
    80000874:	5a8a0a13          	addi	s4,s4,1448 # 80011e18 <uart_tx_lock>
    80000878:	00009497          	auipc	s1,0x9
    8000087c:	36048493          	addi	s1,s1,864 # 80009bd8 <uart_tx_r>
    80000880:	00009997          	auipc	s3,0x9
    80000884:	36098993          	addi	s3,s3,864 # 80009be0 <uart_tx_w>
    80000888:	00594783          	lbu	a5,5(s2) # 10000005 <_entry-0x6ffffffb>
    8000088c:	0ff7f793          	andi	a5,a5,255
    80000890:	0207f793          	andi	a5,a5,32
    80000894:	c785                	beqz	a5,800008bc <uartstart+0x76>
    80000896:	01f77793          	andi	a5,a4,31
    8000089a:	97d2                	add	a5,a5,s4
    8000089c:	0187ca83          	lbu	s5,24(a5)
    800008a0:	0705                	addi	a4,a4,1
    800008a2:	e098                	sd	a4,0(s1)
    800008a4:	8526                	mv	a0,s1
    800008a6:	00002097          	auipc	ra,0x2
    800008aa:	cca080e7          	jalr	-822(ra) # 80002570 <wakeup>
    800008ae:	01590023          	sb	s5,0(s2)
    800008b2:	6098                	ld	a4,0(s1)
    800008b4:	0009b783          	ld	a5,0(s3)
    800008b8:	fce798e3          	bne	a5,a4,80000888 <uartstart+0x42>
    800008bc:	70e2                	ld	ra,56(sp)
    800008be:	7442                	ld	s0,48(sp)
    800008c0:	74a2                	ld	s1,40(sp)
    800008c2:	7902                	ld	s2,32(sp)
    800008c4:	69e2                	ld	s3,24(sp)
    800008c6:	6a42                	ld	s4,16(sp)
    800008c8:	6aa2                	ld	s5,8(sp)
    800008ca:	6121                	addi	sp,sp,64
    800008cc:	8082                	ret
    800008ce:	8082                	ret

00000000800008d0 <uartputc>:
    800008d0:	7179                	addi	sp,sp,-48
    800008d2:	f406                	sd	ra,40(sp)
    800008d4:	f022                	sd	s0,32(sp)
    800008d6:	ec26                	sd	s1,24(sp)
    800008d8:	e84a                	sd	s2,16(sp)
    800008da:	e44e                	sd	s3,8(sp)
    800008dc:	e052                	sd	s4,0(sp)
    800008de:	1800                	addi	s0,sp,48
    800008e0:	89aa                	mv	s3,a0
    800008e2:	00011517          	auipc	a0,0x11
    800008e6:	53650513          	addi	a0,a0,1334 # 80011e18 <uart_tx_lock>
    800008ea:	00000097          	auipc	ra,0x0
    800008ee:	504080e7          	jalr	1284(ra) # 80000dee <acquire>
    800008f2:	00009797          	auipc	a5,0x9
    800008f6:	2de7a783          	lw	a5,734(a5) # 80009bd0 <panicked>
    800008fa:	e7c9                	bnez	a5,80000984 <uartputc+0xb4>
    800008fc:	00009797          	auipc	a5,0x9
    80000900:	2e47b783          	ld	a5,740(a5) # 80009be0 <uart_tx_w>
    80000904:	00009717          	auipc	a4,0x9
    80000908:	2d473703          	ld	a4,724(a4) # 80009bd8 <uart_tx_r>
    8000090c:	02070713          	addi	a4,a4,32
    80000910:	00011a17          	auipc	s4,0x11
    80000914:	508a0a13          	addi	s4,s4,1288 # 80011e18 <uart_tx_lock>
    80000918:	00009497          	auipc	s1,0x9
    8000091c:	2c048493          	addi	s1,s1,704 # 80009bd8 <uart_tx_r>
    80000920:	00009917          	auipc	s2,0x9
    80000924:	2c090913          	addi	s2,s2,704 # 80009be0 <uart_tx_w>
    80000928:	00f71f63          	bne	a4,a5,80000946 <uartputc+0x76>
    8000092c:	85d2                	mv	a1,s4
    8000092e:	8526                	mv	a0,s1
    80000930:	00002097          	auipc	ra,0x2
    80000934:	bca080e7          	jalr	-1078(ra) # 800024fa <sleep>
    80000938:	00093783          	ld	a5,0(s2)
    8000093c:	6098                	ld	a4,0(s1)
    8000093e:	02070713          	addi	a4,a4,32
    80000942:	fef705e3          	beq	a4,a5,8000092c <uartputc+0x5c>
    80000946:	00011497          	auipc	s1,0x11
    8000094a:	4d248493          	addi	s1,s1,1234 # 80011e18 <uart_tx_lock>
    8000094e:	01f7f713          	andi	a4,a5,31
    80000952:	9726                	add	a4,a4,s1
    80000954:	01370c23          	sb	s3,24(a4)
    80000958:	0785                	addi	a5,a5,1
    8000095a:	00009717          	auipc	a4,0x9
    8000095e:	28f73323          	sd	a5,646(a4) # 80009be0 <uart_tx_w>
    80000962:	00000097          	auipc	ra,0x0
    80000966:	ee4080e7          	jalr	-284(ra) # 80000846 <uartstart>
    8000096a:	8526                	mv	a0,s1
    8000096c:	00000097          	auipc	ra,0x0
    80000970:	536080e7          	jalr	1334(ra) # 80000ea2 <release>
    80000974:	70a2                	ld	ra,40(sp)
    80000976:	7402                	ld	s0,32(sp)
    80000978:	64e2                	ld	s1,24(sp)
    8000097a:	6942                	ld	s2,16(sp)
    8000097c:	69a2                	ld	s3,8(sp)
    8000097e:	6a02                	ld	s4,0(sp)
    80000980:	6145                	addi	sp,sp,48
    80000982:	8082                	ret
    80000984:	a001                	j	80000984 <uartputc+0xb4>

0000000080000986 <uartgetc>:
    80000986:	1141                	addi	sp,sp,-16
    80000988:	e422                	sd	s0,8(sp)
    8000098a:	0800                	addi	s0,sp,16
    8000098c:	100007b7          	lui	a5,0x10000
    80000990:	0057c783          	lbu	a5,5(a5) # 10000005 <_entry-0x6ffffffb>
    80000994:	8b85                	andi	a5,a5,1
    80000996:	cb91                	beqz	a5,800009aa <uartgetc+0x24>
    80000998:	100007b7          	lui	a5,0x10000
    8000099c:	0007c503          	lbu	a0,0(a5) # 10000000 <_entry-0x70000000>
    800009a0:	0ff57513          	andi	a0,a0,255
    800009a4:	6422                	ld	s0,8(sp)
    800009a6:	0141                	addi	sp,sp,16
    800009a8:	8082                	ret
    800009aa:	557d                	li	a0,-1
    800009ac:	bfe5                	j	800009a4 <uartgetc+0x1e>

00000000800009ae <uartintr>:
    800009ae:	1101                	addi	sp,sp,-32
    800009b0:	ec06                	sd	ra,24(sp)
    800009b2:	e822                	sd	s0,16(sp)
    800009b4:	e426                	sd	s1,8(sp)
    800009b6:	1000                	addi	s0,sp,32
    800009b8:	54fd                	li	s1,-1
    800009ba:	00000097          	auipc	ra,0x0
    800009be:	fcc080e7          	jalr	-52(ra) # 80000986 <uartgetc>
    800009c2:	00950763          	beq	a0,s1,800009d0 <uartintr+0x22>
    800009c6:	00000097          	auipc	ra,0x0
    800009ca:	8fe080e7          	jalr	-1794(ra) # 800002c4 <consoleintr>
    800009ce:	b7f5                	j	800009ba <uartintr+0xc>
    800009d0:	00011497          	auipc	s1,0x11
    800009d4:	44848493          	addi	s1,s1,1096 # 80011e18 <uart_tx_lock>
    800009d8:	8526                	mv	a0,s1
    800009da:	00000097          	auipc	ra,0x0
    800009de:	414080e7          	jalr	1044(ra) # 80000dee <acquire>
    800009e2:	00000097          	auipc	ra,0x0
    800009e6:	e64080e7          	jalr	-412(ra) # 80000846 <uartstart>
    800009ea:	8526                	mv	a0,s1
    800009ec:	00000097          	auipc	ra,0x0
    800009f0:	4b6080e7          	jalr	1206(ra) # 80000ea2 <release>
    800009f4:	60e2                	ld	ra,24(sp)
    800009f6:	6442                	ld	s0,16(sp)
    800009f8:	64a2                	ld	s1,8(sp)
    800009fa:	6105                	addi	sp,sp,32
    800009fc:	8082                	ret

00000000800009fe <init_page_ref>:
    800009fe:	1141                	addi	sp,sp,-16
    80000a00:	e406                	sd	ra,8(sp)
    80000a02:	e022                	sd	s0,0(sp)
    80000a04:	0800                	addi	s0,sp,16
    80000a06:	00008597          	auipc	a1,0x8
    80000a0a:	65a58593          	addi	a1,a1,1626 # 80009060 <digits+0x20>
    80000a0e:	00011517          	auipc	a0,0x11
    80000a12:	46250513          	addi	a0,a0,1122 # 80011e70 <page_ref>
    80000a16:	00000097          	auipc	ra,0x0
    80000a1a:	348080e7          	jalr	840(ra) # 80000d5e <initlock>
    80000a1e:	00011517          	auipc	a0,0x11
    80000a22:	45250513          	addi	a0,a0,1106 # 80011e70 <page_ref>
    80000a26:	00000097          	auipc	ra,0x0
    80000a2a:	3c8080e7          	jalr	968(ra) # 80000dee <acquire>
    80000a2e:	00011797          	auipc	a5,0x11
    80000a32:	45a78793          	addi	a5,a5,1114 # 80011e88 <page_ref+0x18>
    80000a36:	00231717          	auipc	a4,0x231
    80000a3a:	45270713          	addi	a4,a4,1106 # 80231e88 <pid_lock>
    80000a3e:	0007a023          	sw	zero,0(a5)
    80000a42:	0791                	addi	a5,a5,4
    80000a44:	fee79de3          	bne	a5,a4,80000a3e <init_page_ref+0x40>
    80000a48:	00011517          	auipc	a0,0x11
    80000a4c:	42850513          	addi	a0,a0,1064 # 80011e70 <page_ref>
    80000a50:	00000097          	auipc	ra,0x0
    80000a54:	452080e7          	jalr	1106(ra) # 80000ea2 <release>
    80000a58:	60a2                	ld	ra,8(sp)
    80000a5a:	6402                	ld	s0,0(sp)
    80000a5c:	0141                	addi	sp,sp,16
    80000a5e:	8082                	ret

0000000080000a60 <kfree>:
    80000a60:	1101                	addi	sp,sp,-32
    80000a62:	ec06                	sd	ra,24(sp)
    80000a64:	e822                	sd	s0,16(sp)
    80000a66:	e426                	sd	s1,8(sp)
    80000a68:	e04a                	sd	s2,0(sp)
    80000a6a:	1000                	addi	s0,sp,32
    80000a6c:	84aa                	mv	s1,a0
    80000a6e:	00011517          	auipc	a0,0x11
    80000a72:	40250513          	addi	a0,a0,1026 # 80011e70 <page_ref>
    80000a76:	00000097          	auipc	ra,0x0
    80000a7a:	378080e7          	jalr	888(ra) # 80000dee <acquire>
    80000a7e:	00c4d793          	srli	a5,s1,0xc
    80000a82:	00478713          	addi	a4,a5,4
    80000a86:	00271693          	slli	a3,a4,0x2
    80000a8a:	00011717          	auipc	a4,0x11
    80000a8e:	3e670713          	addi	a4,a4,998 # 80011e70 <page_ref>
    80000a92:	9736                	add	a4,a4,a3
    80000a94:	4718                	lw	a4,8(a4)
    80000a96:	06e05763          	blez	a4,80000b04 <kfree+0xa4>
    80000a9a:	377d                	addiw	a4,a4,-1
    80000a9c:	0007061b          	sext.w	a2,a4
    80000aa0:	0791                	addi	a5,a5,4
    80000aa2:	078a                	slli	a5,a5,0x2
    80000aa4:	00011697          	auipc	a3,0x11
    80000aa8:	3cc68693          	addi	a3,a3,972 # 80011e70 <page_ref>
    80000aac:	97b6                	add	a5,a5,a3
    80000aae:	c798                	sw	a4,8(a5)
    80000ab0:	06c04263          	bgtz	a2,80000b14 <kfree+0xb4>
    80000ab4:	00011517          	auipc	a0,0x11
    80000ab8:	3bc50513          	addi	a0,a0,956 # 80011e70 <page_ref>
    80000abc:	00000097          	auipc	ra,0x0
    80000ac0:	3e6080e7          	jalr	998(ra) # 80000ea2 <release>
    80000ac4:	6605                	lui	a2,0x1
    80000ac6:	4585                	li	a1,1
    80000ac8:	8526                	mv	a0,s1
    80000aca:	00000097          	auipc	ra,0x0
    80000ace:	420080e7          	jalr	1056(ra) # 80000eea <memset>
    80000ad2:	00011917          	auipc	s2,0x11
    80000ad6:	37e90913          	addi	s2,s2,894 # 80011e50 <kmem>
    80000ada:	854a                	mv	a0,s2
    80000adc:	00000097          	auipc	ra,0x0
    80000ae0:	312080e7          	jalr	786(ra) # 80000dee <acquire>
    80000ae4:	01893783          	ld	a5,24(s2)
    80000ae8:	e09c                	sd	a5,0(s1)
    80000aea:	00993c23          	sd	s1,24(s2)
    80000aee:	854a                	mv	a0,s2
    80000af0:	00000097          	auipc	ra,0x0
    80000af4:	3b2080e7          	jalr	946(ra) # 80000ea2 <release>
    80000af8:	60e2                	ld	ra,24(sp)
    80000afa:	6442                	ld	s0,16(sp)
    80000afc:	64a2                	ld	s1,8(sp)
    80000afe:	6902                	ld	s2,0(sp)
    80000b00:	6105                	addi	sp,sp,32
    80000b02:	8082                	ret
    80000b04:	00008517          	auipc	a0,0x8
    80000b08:	56c50513          	addi	a0,a0,1388 # 80009070 <digits+0x30>
    80000b0c:	00000097          	auipc	ra,0x0
    80000b10:	a38080e7          	jalr	-1480(ra) # 80000544 <panic>
    80000b14:	8536                	mv	a0,a3
    80000b16:	00000097          	auipc	ra,0x0
    80000b1a:	38c080e7          	jalr	908(ra) # 80000ea2 <release>
    80000b1e:	bfe9                	j	80000af8 <kfree+0x98>

0000000080000b20 <dec_page_ref>:
    80000b20:	1101                	addi	sp,sp,-32
    80000b22:	ec06                	sd	ra,24(sp)
    80000b24:	e822                	sd	s0,16(sp)
    80000b26:	e426                	sd	s1,8(sp)
    80000b28:	1000                	addi	s0,sp,32
    80000b2a:	84aa                	mv	s1,a0
    80000b2c:	00011517          	auipc	a0,0x11
    80000b30:	34450513          	addi	a0,a0,836 # 80011e70 <page_ref>
    80000b34:	00000097          	auipc	ra,0x0
    80000b38:	2ba080e7          	jalr	698(ra) # 80000dee <acquire>
    80000b3c:	00c4d793          	srli	a5,s1,0xc
    80000b40:	00478713          	addi	a4,a5,4
    80000b44:	00271693          	slli	a3,a4,0x2
    80000b48:	00011717          	auipc	a4,0x11
    80000b4c:	32870713          	addi	a4,a4,808 # 80011e70 <page_ref>
    80000b50:	9736                	add	a4,a4,a3
    80000b52:	4718                	lw	a4,8(a4)
    80000b54:	02e05463          	blez	a4,80000b7c <dec_page_ref+0x5c>
    80000b58:	00011517          	auipc	a0,0x11
    80000b5c:	31850513          	addi	a0,a0,792 # 80011e70 <page_ref>
    80000b60:	0791                	addi	a5,a5,4
    80000b62:	078a                	slli	a5,a5,0x2
    80000b64:	97aa                	add	a5,a5,a0
    80000b66:	377d                	addiw	a4,a4,-1
    80000b68:	c798                	sw	a4,8(a5)
    80000b6a:	00000097          	auipc	ra,0x0
    80000b6e:	338080e7          	jalr	824(ra) # 80000ea2 <release>
    80000b72:	60e2                	ld	ra,24(sp)
    80000b74:	6442                	ld	s0,16(sp)
    80000b76:	64a2                	ld	s1,8(sp)
    80000b78:	6105                	addi	sp,sp,32
    80000b7a:	8082                	ret
    80000b7c:	00008517          	auipc	a0,0x8
    80000b80:	50450513          	addi	a0,a0,1284 # 80009080 <digits+0x40>
    80000b84:	00000097          	auipc	ra,0x0
    80000b88:	9c0080e7          	jalr	-1600(ra) # 80000544 <panic>

0000000080000b8c <inc_page_ref>:
    80000b8c:	1101                	addi	sp,sp,-32
    80000b8e:	ec06                	sd	ra,24(sp)
    80000b90:	e822                	sd	s0,16(sp)
    80000b92:	e426                	sd	s1,8(sp)
    80000b94:	1000                	addi	s0,sp,32
    80000b96:	84aa                	mv	s1,a0
    80000b98:	00011517          	auipc	a0,0x11
    80000b9c:	2d850513          	addi	a0,a0,728 # 80011e70 <page_ref>
    80000ba0:	00000097          	auipc	ra,0x0
    80000ba4:	24e080e7          	jalr	590(ra) # 80000dee <acquire>
    80000ba8:	00c4d793          	srli	a5,s1,0xc
    80000bac:	00478713          	addi	a4,a5,4
    80000bb0:	00271693          	slli	a3,a4,0x2
    80000bb4:	00011717          	auipc	a4,0x11
    80000bb8:	2bc70713          	addi	a4,a4,700 # 80011e70 <page_ref>
    80000bbc:	9736                	add	a4,a4,a3
    80000bbe:	4718                	lw	a4,8(a4)
    80000bc0:	02074463          	bltz	a4,80000be8 <inc_page_ref+0x5c>
    80000bc4:	00011517          	auipc	a0,0x11
    80000bc8:	2ac50513          	addi	a0,a0,684 # 80011e70 <page_ref>
    80000bcc:	0791                	addi	a5,a5,4
    80000bce:	078a                	slli	a5,a5,0x2
    80000bd0:	97aa                	add	a5,a5,a0
    80000bd2:	2705                	addiw	a4,a4,1
    80000bd4:	c798                	sw	a4,8(a5)
    80000bd6:	00000097          	auipc	ra,0x0
    80000bda:	2cc080e7          	jalr	716(ra) # 80000ea2 <release>
    80000bde:	60e2                	ld	ra,24(sp)
    80000be0:	6442                	ld	s0,16(sp)
    80000be2:	64a2                	ld	s1,8(sp)
    80000be4:	6105                	addi	sp,sp,32
    80000be6:	8082                	ret
    80000be8:	00008517          	auipc	a0,0x8
    80000bec:	4b050513          	addi	a0,a0,1200 # 80009098 <digits+0x58>
    80000bf0:	00000097          	auipc	ra,0x0
    80000bf4:	954080e7          	jalr	-1708(ra) # 80000544 <panic>

0000000080000bf8 <freerange>:
    80000bf8:	7139                	addi	sp,sp,-64
    80000bfa:	fc06                	sd	ra,56(sp)
    80000bfc:	f822                	sd	s0,48(sp)
    80000bfe:	f426                	sd	s1,40(sp)
    80000c00:	f04a                	sd	s2,32(sp)
    80000c02:	ec4e                	sd	s3,24(sp)
    80000c04:	e852                	sd	s4,16(sp)
    80000c06:	e456                	sd	s5,8(sp)
    80000c08:	0080                	addi	s0,sp,64
    80000c0a:	6785                	lui	a5,0x1
    80000c0c:	fff78493          	addi	s1,a5,-1 # fff <_entry-0x7ffff001>
    80000c10:	94aa                	add	s1,s1,a0
    80000c12:	757d                	lui	a0,0xfffff
    80000c14:	8ce9                	and	s1,s1,a0
    80000c16:	94be                	add	s1,s1,a5
    80000c18:	0295e463          	bltu	a1,s1,80000c40 <freerange+0x48>
    80000c1c:	89ae                	mv	s3,a1
    80000c1e:	7afd                	lui	s5,0xfffff
    80000c20:	6a05                	lui	s4,0x1
    80000c22:	01548933          	add	s2,s1,s5
    80000c26:	854a                	mv	a0,s2
    80000c28:	00000097          	auipc	ra,0x0
    80000c2c:	f64080e7          	jalr	-156(ra) # 80000b8c <inc_page_ref>
    80000c30:	854a                	mv	a0,s2
    80000c32:	00000097          	auipc	ra,0x0
    80000c36:	e2e080e7          	jalr	-466(ra) # 80000a60 <kfree>
    80000c3a:	94d2                	add	s1,s1,s4
    80000c3c:	fe99f3e3          	bgeu	s3,s1,80000c22 <freerange+0x2a>
    80000c40:	70e2                	ld	ra,56(sp)
    80000c42:	7442                	ld	s0,48(sp)
    80000c44:	74a2                	ld	s1,40(sp)
    80000c46:	7902                	ld	s2,32(sp)
    80000c48:	69e2                	ld	s3,24(sp)
    80000c4a:	6a42                	ld	s4,16(sp)
    80000c4c:	6aa2                	ld	s5,8(sp)
    80000c4e:	6121                	addi	sp,sp,64
    80000c50:	8082                	ret

0000000080000c52 <kinit>:
    80000c52:	1141                	addi	sp,sp,-16
    80000c54:	e406                	sd	ra,8(sp)
    80000c56:	e022                	sd	s0,0(sp)
    80000c58:	0800                	addi	s0,sp,16
    80000c5a:	00000097          	auipc	ra,0x0
    80000c5e:	da4080e7          	jalr	-604(ra) # 800009fe <init_page_ref>
    80000c62:	00008597          	auipc	a1,0x8
    80000c66:	44e58593          	addi	a1,a1,1102 # 800090b0 <digits+0x70>
    80000c6a:	00011517          	auipc	a0,0x11
    80000c6e:	1e650513          	addi	a0,a0,486 # 80011e50 <kmem>
    80000c72:	00000097          	auipc	ra,0x0
    80000c76:	0ec080e7          	jalr	236(ra) # 80000d5e <initlock>
    80000c7a:	45c5                	li	a1,17
    80000c7c:	05ee                	slli	a1,a1,0x1b
    80000c7e:	00246517          	auipc	a0,0x246
    80000c82:	41250513          	addi	a0,a0,1042 # 80247090 <end>
    80000c86:	00000097          	auipc	ra,0x0
    80000c8a:	f72080e7          	jalr	-142(ra) # 80000bf8 <freerange>
    80000c8e:	60a2                	ld	ra,8(sp)
    80000c90:	6402                	ld	s0,0(sp)
    80000c92:	0141                	addi	sp,sp,16
    80000c94:	8082                	ret

0000000080000c96 <kalloc>:
    80000c96:	1101                	addi	sp,sp,-32
    80000c98:	ec06                	sd	ra,24(sp)
    80000c9a:	e822                	sd	s0,16(sp)
    80000c9c:	e426                	sd	s1,8(sp)
    80000c9e:	1000                	addi	s0,sp,32
    80000ca0:	00011497          	auipc	s1,0x11
    80000ca4:	1b048493          	addi	s1,s1,432 # 80011e50 <kmem>
    80000ca8:	8526                	mv	a0,s1
    80000caa:	00000097          	auipc	ra,0x0
    80000cae:	144080e7          	jalr	324(ra) # 80000dee <acquire>
    80000cb2:	6c84                	ld	s1,24(s1)
    80000cb4:	cc8d                	beqz	s1,80000cee <kalloc+0x58>
    80000cb6:	609c                	ld	a5,0(s1)
    80000cb8:	00011517          	auipc	a0,0x11
    80000cbc:	19850513          	addi	a0,a0,408 # 80011e50 <kmem>
    80000cc0:	ed1c                	sd	a5,24(a0)
    80000cc2:	00000097          	auipc	ra,0x0
    80000cc6:	1e0080e7          	jalr	480(ra) # 80000ea2 <release>
    80000cca:	6605                	lui	a2,0x1
    80000ccc:	4595                	li	a1,5
    80000cce:	8526                	mv	a0,s1
    80000cd0:	00000097          	auipc	ra,0x0
    80000cd4:	21a080e7          	jalr	538(ra) # 80000eea <memset>
    80000cd8:	8526                	mv	a0,s1
    80000cda:	00000097          	auipc	ra,0x0
    80000cde:	eb2080e7          	jalr	-334(ra) # 80000b8c <inc_page_ref>
    80000ce2:	8526                	mv	a0,s1
    80000ce4:	60e2                	ld	ra,24(sp)
    80000ce6:	6442                	ld	s0,16(sp)
    80000ce8:	64a2                	ld	s1,8(sp)
    80000cea:	6105                	addi	sp,sp,32
    80000cec:	8082                	ret
    80000cee:	00011517          	auipc	a0,0x11
    80000cf2:	16250513          	addi	a0,a0,354 # 80011e50 <kmem>
    80000cf6:	00000097          	auipc	ra,0x0
    80000cfa:	1ac080e7          	jalr	428(ra) # 80000ea2 <release>
    80000cfe:	b7d5                	j	80000ce2 <kalloc+0x4c>

0000000080000d00 <get_page_ref>:
    80000d00:	1101                	addi	sp,sp,-32
    80000d02:	ec06                	sd	ra,24(sp)
    80000d04:	e822                	sd	s0,16(sp)
    80000d06:	e426                	sd	s1,8(sp)
    80000d08:	1000                	addi	s0,sp,32
    80000d0a:	84aa                	mv	s1,a0
    80000d0c:	00011517          	auipc	a0,0x11
    80000d10:	16450513          	addi	a0,a0,356 # 80011e70 <page_ref>
    80000d14:	00000097          	auipc	ra,0x0
    80000d18:	0da080e7          	jalr	218(ra) # 80000dee <acquire>
    80000d1c:	80b1                	srli	s1,s1,0xc
    80000d1e:	0491                	addi	s1,s1,4
    80000d20:	048a                	slli	s1,s1,0x2
    80000d22:	00011797          	auipc	a5,0x11
    80000d26:	14e78793          	addi	a5,a5,334 # 80011e70 <page_ref>
    80000d2a:	94be                	add	s1,s1,a5
    80000d2c:	4484                	lw	s1,8(s1)
    80000d2e:	0204c063          	bltz	s1,80000d4e <get_page_ref+0x4e>
    80000d32:	00011517          	auipc	a0,0x11
    80000d36:	13e50513          	addi	a0,a0,318 # 80011e70 <page_ref>
    80000d3a:	00000097          	auipc	ra,0x0
    80000d3e:	168080e7          	jalr	360(ra) # 80000ea2 <release>
    80000d42:	8526                	mv	a0,s1
    80000d44:	60e2                	ld	ra,24(sp)
    80000d46:	6442                	ld	s0,16(sp)
    80000d48:	64a2                	ld	s1,8(sp)
    80000d4a:	6105                	addi	sp,sp,32
    80000d4c:	8082                	ret
    80000d4e:	00008517          	auipc	a0,0x8
    80000d52:	36a50513          	addi	a0,a0,874 # 800090b8 <digits+0x78>
    80000d56:	fffff097          	auipc	ra,0xfffff
    80000d5a:	7ee080e7          	jalr	2030(ra) # 80000544 <panic>

0000000080000d5e <initlock>:
    80000d5e:	1141                	addi	sp,sp,-16
    80000d60:	e422                	sd	s0,8(sp)
    80000d62:	0800                	addi	s0,sp,16
    80000d64:	e50c                	sd	a1,8(a0)
    80000d66:	00052023          	sw	zero,0(a0)
    80000d6a:	00053823          	sd	zero,16(a0)
    80000d6e:	6422                	ld	s0,8(sp)
    80000d70:	0141                	addi	sp,sp,16
    80000d72:	8082                	ret

0000000080000d74 <holding>:
    80000d74:	411c                	lw	a5,0(a0)
    80000d76:	e399                	bnez	a5,80000d7c <holding+0x8>
    80000d78:	4501                	li	a0,0
    80000d7a:	8082                	ret
    80000d7c:	1101                	addi	sp,sp,-32
    80000d7e:	ec06                	sd	ra,24(sp)
    80000d80:	e822                	sd	s0,16(sp)
    80000d82:	e426                	sd	s1,8(sp)
    80000d84:	1000                	addi	s0,sp,32
    80000d86:	6904                	ld	s1,16(a0)
    80000d88:	00001097          	auipc	ra,0x1
    80000d8c:	074080e7          	jalr	116(ra) # 80001dfc <mycpu>
    80000d90:	40a48533          	sub	a0,s1,a0
    80000d94:	00153513          	seqz	a0,a0
    80000d98:	60e2                	ld	ra,24(sp)
    80000d9a:	6442                	ld	s0,16(sp)
    80000d9c:	64a2                	ld	s1,8(sp)
    80000d9e:	6105                	addi	sp,sp,32
    80000da0:	8082                	ret

0000000080000da2 <push_off>:
    80000da2:	1101                	addi	sp,sp,-32
    80000da4:	ec06                	sd	ra,24(sp)
    80000da6:	e822                	sd	s0,16(sp)
    80000da8:	e426                	sd	s1,8(sp)
    80000daa:	1000                	addi	s0,sp,32
    80000dac:	100024f3          	csrr	s1,sstatus
    80000db0:	100027f3          	csrr	a5,sstatus
    80000db4:	9bf5                	andi	a5,a5,-3
    80000db6:	10079073          	csrw	sstatus,a5
    80000dba:	00001097          	auipc	ra,0x1
    80000dbe:	042080e7          	jalr	66(ra) # 80001dfc <mycpu>
    80000dc2:	5d3c                	lw	a5,120(a0)
    80000dc4:	cf89                	beqz	a5,80000dde <push_off+0x3c>
    80000dc6:	00001097          	auipc	ra,0x1
    80000dca:	036080e7          	jalr	54(ra) # 80001dfc <mycpu>
    80000dce:	5d3c                	lw	a5,120(a0)
    80000dd0:	2785                	addiw	a5,a5,1
    80000dd2:	dd3c                	sw	a5,120(a0)
    80000dd4:	60e2                	ld	ra,24(sp)
    80000dd6:	6442                	ld	s0,16(sp)
    80000dd8:	64a2                	ld	s1,8(sp)
    80000dda:	6105                	addi	sp,sp,32
    80000ddc:	8082                	ret
    80000dde:	00001097          	auipc	ra,0x1
    80000de2:	01e080e7          	jalr	30(ra) # 80001dfc <mycpu>
    80000de6:	8085                	srli	s1,s1,0x1
    80000de8:	8885                	andi	s1,s1,1
    80000dea:	dd64                	sw	s1,124(a0)
    80000dec:	bfe9                	j	80000dc6 <push_off+0x24>

0000000080000dee <acquire>:
    80000dee:	1101                	addi	sp,sp,-32
    80000df0:	ec06                	sd	ra,24(sp)
    80000df2:	e822                	sd	s0,16(sp)
    80000df4:	e426                	sd	s1,8(sp)
    80000df6:	1000                	addi	s0,sp,32
    80000df8:	84aa                	mv	s1,a0
    80000dfa:	00000097          	auipc	ra,0x0
    80000dfe:	fa8080e7          	jalr	-88(ra) # 80000da2 <push_off>
    80000e02:	8526                	mv	a0,s1
    80000e04:	00000097          	auipc	ra,0x0
    80000e08:	f70080e7          	jalr	-144(ra) # 80000d74 <holding>
    80000e0c:	4705                	li	a4,1
    80000e0e:	e115                	bnez	a0,80000e32 <acquire+0x44>
    80000e10:	87ba                	mv	a5,a4
    80000e12:	0cf4a7af          	amoswap.w.aq	a5,a5,(s1)
    80000e16:	2781                	sext.w	a5,a5
    80000e18:	ffe5                	bnez	a5,80000e10 <acquire+0x22>
    80000e1a:	0ff0000f          	fence
    80000e1e:	00001097          	auipc	ra,0x1
    80000e22:	fde080e7          	jalr	-34(ra) # 80001dfc <mycpu>
    80000e26:	e888                	sd	a0,16(s1)
    80000e28:	60e2                	ld	ra,24(sp)
    80000e2a:	6442                	ld	s0,16(sp)
    80000e2c:	64a2                	ld	s1,8(sp)
    80000e2e:	6105                	addi	sp,sp,32
    80000e30:	8082                	ret
    80000e32:	00008517          	auipc	a0,0x8
    80000e36:	29e50513          	addi	a0,a0,670 # 800090d0 <digits+0x90>
    80000e3a:	fffff097          	auipc	ra,0xfffff
    80000e3e:	70a080e7          	jalr	1802(ra) # 80000544 <panic>

0000000080000e42 <pop_off>:
    80000e42:	1141                	addi	sp,sp,-16
    80000e44:	e406                	sd	ra,8(sp)
    80000e46:	e022                	sd	s0,0(sp)
    80000e48:	0800                	addi	s0,sp,16
    80000e4a:	00001097          	auipc	ra,0x1
    80000e4e:	fb2080e7          	jalr	-78(ra) # 80001dfc <mycpu>
    80000e52:	100027f3          	csrr	a5,sstatus
    80000e56:	8b89                	andi	a5,a5,2
    80000e58:	e78d                	bnez	a5,80000e82 <pop_off+0x40>
    80000e5a:	5d3c                	lw	a5,120(a0)
    80000e5c:	02f05b63          	blez	a5,80000e92 <pop_off+0x50>
    80000e60:	37fd                	addiw	a5,a5,-1
    80000e62:	0007871b          	sext.w	a4,a5
    80000e66:	dd3c                	sw	a5,120(a0)
    80000e68:	eb09                	bnez	a4,80000e7a <pop_off+0x38>
    80000e6a:	5d7c                	lw	a5,124(a0)
    80000e6c:	c799                	beqz	a5,80000e7a <pop_off+0x38>
    80000e6e:	100027f3          	csrr	a5,sstatus
    80000e72:	0027e793          	ori	a5,a5,2
    80000e76:	10079073          	csrw	sstatus,a5
    80000e7a:	60a2                	ld	ra,8(sp)
    80000e7c:	6402                	ld	s0,0(sp)
    80000e7e:	0141                	addi	sp,sp,16
    80000e80:	8082                	ret
    80000e82:	00008517          	auipc	a0,0x8
    80000e86:	25650513          	addi	a0,a0,598 # 800090d8 <digits+0x98>
    80000e8a:	fffff097          	auipc	ra,0xfffff
    80000e8e:	6ba080e7          	jalr	1722(ra) # 80000544 <panic>
    80000e92:	00008517          	auipc	a0,0x8
    80000e96:	25e50513          	addi	a0,a0,606 # 800090f0 <digits+0xb0>
    80000e9a:	fffff097          	auipc	ra,0xfffff
    80000e9e:	6aa080e7          	jalr	1706(ra) # 80000544 <panic>

0000000080000ea2 <release>:
    80000ea2:	1101                	addi	sp,sp,-32
    80000ea4:	ec06                	sd	ra,24(sp)
    80000ea6:	e822                	sd	s0,16(sp)
    80000ea8:	e426                	sd	s1,8(sp)
    80000eaa:	1000                	addi	s0,sp,32
    80000eac:	84aa                	mv	s1,a0
    80000eae:	00000097          	auipc	ra,0x0
    80000eb2:	ec6080e7          	jalr	-314(ra) # 80000d74 <holding>
    80000eb6:	c115                	beqz	a0,80000eda <release+0x38>
    80000eb8:	0004b823          	sd	zero,16(s1)
    80000ebc:	0ff0000f          	fence
    80000ec0:	0f50000f          	fence	iorw,ow
    80000ec4:	0804a02f          	amoswap.w	zero,zero,(s1)
    80000ec8:	00000097          	auipc	ra,0x0
    80000ecc:	f7a080e7          	jalr	-134(ra) # 80000e42 <pop_off>
    80000ed0:	60e2                	ld	ra,24(sp)
    80000ed2:	6442                	ld	s0,16(sp)
    80000ed4:	64a2                	ld	s1,8(sp)
    80000ed6:	6105                	addi	sp,sp,32
    80000ed8:	8082                	ret
    80000eda:	00008517          	auipc	a0,0x8
    80000ede:	21e50513          	addi	a0,a0,542 # 800090f8 <digits+0xb8>
    80000ee2:	fffff097          	auipc	ra,0xfffff
    80000ee6:	662080e7          	jalr	1634(ra) # 80000544 <panic>

0000000080000eea <memset>:
    80000eea:	1141                	addi	sp,sp,-16
    80000eec:	e422                	sd	s0,8(sp)
    80000eee:	0800                	addi	s0,sp,16
    80000ef0:	ce09                	beqz	a2,80000f0a <memset+0x20>
    80000ef2:	87aa                	mv	a5,a0
    80000ef4:	fff6071b          	addiw	a4,a2,-1
    80000ef8:	1702                	slli	a4,a4,0x20
    80000efa:	9301                	srli	a4,a4,0x20
    80000efc:	0705                	addi	a4,a4,1
    80000efe:	972a                	add	a4,a4,a0
    80000f00:	00b78023          	sb	a1,0(a5)
    80000f04:	0785                	addi	a5,a5,1
    80000f06:	fee79de3          	bne	a5,a4,80000f00 <memset+0x16>
    80000f0a:	6422                	ld	s0,8(sp)
    80000f0c:	0141                	addi	sp,sp,16
    80000f0e:	8082                	ret

0000000080000f10 <memcmp>:
    80000f10:	1141                	addi	sp,sp,-16
    80000f12:	e422                	sd	s0,8(sp)
    80000f14:	0800                	addi	s0,sp,16
    80000f16:	ca05                	beqz	a2,80000f46 <memcmp+0x36>
    80000f18:	fff6069b          	addiw	a3,a2,-1
    80000f1c:	1682                	slli	a3,a3,0x20
    80000f1e:	9281                	srli	a3,a3,0x20
    80000f20:	0685                	addi	a3,a3,1
    80000f22:	96aa                	add	a3,a3,a0
    80000f24:	00054783          	lbu	a5,0(a0)
    80000f28:	0005c703          	lbu	a4,0(a1)
    80000f2c:	00e79863          	bne	a5,a4,80000f3c <memcmp+0x2c>
    80000f30:	0505                	addi	a0,a0,1
    80000f32:	0585                	addi	a1,a1,1
    80000f34:	fed518e3          	bne	a0,a3,80000f24 <memcmp+0x14>
    80000f38:	4501                	li	a0,0
    80000f3a:	a019                	j	80000f40 <memcmp+0x30>
    80000f3c:	40e7853b          	subw	a0,a5,a4
    80000f40:	6422                	ld	s0,8(sp)
    80000f42:	0141                	addi	sp,sp,16
    80000f44:	8082                	ret
    80000f46:	4501                	li	a0,0
    80000f48:	bfe5                	j	80000f40 <memcmp+0x30>

0000000080000f4a <memmove>:
    80000f4a:	1141                	addi	sp,sp,-16
    80000f4c:	e422                	sd	s0,8(sp)
    80000f4e:	0800                	addi	s0,sp,16
    80000f50:	ca0d                	beqz	a2,80000f82 <memmove+0x38>
    80000f52:	00a5f963          	bgeu	a1,a0,80000f64 <memmove+0x1a>
    80000f56:	02061693          	slli	a3,a2,0x20
    80000f5a:	9281                	srli	a3,a3,0x20
    80000f5c:	00d58733          	add	a4,a1,a3
    80000f60:	02e56463          	bltu	a0,a4,80000f88 <memmove+0x3e>
    80000f64:	fff6079b          	addiw	a5,a2,-1
    80000f68:	1782                	slli	a5,a5,0x20
    80000f6a:	9381                	srli	a5,a5,0x20
    80000f6c:	0785                	addi	a5,a5,1
    80000f6e:	97ae                	add	a5,a5,a1
    80000f70:	872a                	mv	a4,a0
    80000f72:	0585                	addi	a1,a1,1
    80000f74:	0705                	addi	a4,a4,1
    80000f76:	fff5c683          	lbu	a3,-1(a1)
    80000f7a:	fed70fa3          	sb	a3,-1(a4)
    80000f7e:	fef59ae3          	bne	a1,a5,80000f72 <memmove+0x28>
    80000f82:	6422                	ld	s0,8(sp)
    80000f84:	0141                	addi	sp,sp,16
    80000f86:	8082                	ret
    80000f88:	96aa                	add	a3,a3,a0
    80000f8a:	fff6079b          	addiw	a5,a2,-1
    80000f8e:	1782                	slli	a5,a5,0x20
    80000f90:	9381                	srli	a5,a5,0x20
    80000f92:	fff7c793          	not	a5,a5
    80000f96:	97ba                	add	a5,a5,a4
    80000f98:	177d                	addi	a4,a4,-1
    80000f9a:	16fd                	addi	a3,a3,-1
    80000f9c:	00074603          	lbu	a2,0(a4)
    80000fa0:	00c68023          	sb	a2,0(a3)
    80000fa4:	fef71ae3          	bne	a4,a5,80000f98 <memmove+0x4e>
    80000fa8:	bfe9                	j	80000f82 <memmove+0x38>

0000000080000faa <memcpy>:
    80000faa:	1141                	addi	sp,sp,-16
    80000fac:	e406                	sd	ra,8(sp)
    80000fae:	e022                	sd	s0,0(sp)
    80000fb0:	0800                	addi	s0,sp,16
    80000fb2:	00000097          	auipc	ra,0x0
    80000fb6:	f98080e7          	jalr	-104(ra) # 80000f4a <memmove>
    80000fba:	60a2                	ld	ra,8(sp)
    80000fbc:	6402                	ld	s0,0(sp)
    80000fbe:	0141                	addi	sp,sp,16
    80000fc0:	8082                	ret

0000000080000fc2 <strncmp>:
    80000fc2:	1141                	addi	sp,sp,-16
    80000fc4:	e422                	sd	s0,8(sp)
    80000fc6:	0800                	addi	s0,sp,16
    80000fc8:	ce11                	beqz	a2,80000fe4 <strncmp+0x22>
    80000fca:	00054783          	lbu	a5,0(a0)
    80000fce:	cf89                	beqz	a5,80000fe8 <strncmp+0x26>
    80000fd0:	0005c703          	lbu	a4,0(a1)
    80000fd4:	00f71a63          	bne	a4,a5,80000fe8 <strncmp+0x26>
    80000fd8:	367d                	addiw	a2,a2,-1
    80000fda:	0505                	addi	a0,a0,1
    80000fdc:	0585                	addi	a1,a1,1
    80000fde:	f675                	bnez	a2,80000fca <strncmp+0x8>
    80000fe0:	4501                	li	a0,0
    80000fe2:	a809                	j	80000ff4 <strncmp+0x32>
    80000fe4:	4501                	li	a0,0
    80000fe6:	a039                	j	80000ff4 <strncmp+0x32>
    80000fe8:	ca09                	beqz	a2,80000ffa <strncmp+0x38>
    80000fea:	00054503          	lbu	a0,0(a0)
    80000fee:	0005c783          	lbu	a5,0(a1)
    80000ff2:	9d1d                	subw	a0,a0,a5
    80000ff4:	6422                	ld	s0,8(sp)
    80000ff6:	0141                	addi	sp,sp,16
    80000ff8:	8082                	ret
    80000ffa:	4501                	li	a0,0
    80000ffc:	bfe5                	j	80000ff4 <strncmp+0x32>

0000000080000ffe <strncpy>:
    80000ffe:	1141                	addi	sp,sp,-16
    80001000:	e422                	sd	s0,8(sp)
    80001002:	0800                	addi	s0,sp,16
    80001004:	872a                	mv	a4,a0
    80001006:	8832                	mv	a6,a2
    80001008:	367d                	addiw	a2,a2,-1
    8000100a:	01005963          	blez	a6,8000101c <strncpy+0x1e>
    8000100e:	0705                	addi	a4,a4,1
    80001010:	0005c783          	lbu	a5,0(a1)
    80001014:	fef70fa3          	sb	a5,-1(a4)
    80001018:	0585                	addi	a1,a1,1
    8000101a:	f7f5                	bnez	a5,80001006 <strncpy+0x8>
    8000101c:	00c05d63          	blez	a2,80001036 <strncpy+0x38>
    80001020:	86ba                	mv	a3,a4
    80001022:	0685                	addi	a3,a3,1
    80001024:	fe068fa3          	sb	zero,-1(a3)
    80001028:	fff6c793          	not	a5,a3
    8000102c:	9fb9                	addw	a5,a5,a4
    8000102e:	010787bb          	addw	a5,a5,a6
    80001032:	fef048e3          	bgtz	a5,80001022 <strncpy+0x24>
    80001036:	6422                	ld	s0,8(sp)
    80001038:	0141                	addi	sp,sp,16
    8000103a:	8082                	ret

000000008000103c <safestrcpy>:
    8000103c:	1141                	addi	sp,sp,-16
    8000103e:	e422                	sd	s0,8(sp)
    80001040:	0800                	addi	s0,sp,16
    80001042:	02c05363          	blez	a2,80001068 <safestrcpy+0x2c>
    80001046:	fff6069b          	addiw	a3,a2,-1
    8000104a:	1682                	slli	a3,a3,0x20
    8000104c:	9281                	srli	a3,a3,0x20
    8000104e:	96ae                	add	a3,a3,a1
    80001050:	87aa                	mv	a5,a0
    80001052:	00d58963          	beq	a1,a3,80001064 <safestrcpy+0x28>
    80001056:	0585                	addi	a1,a1,1
    80001058:	0785                	addi	a5,a5,1
    8000105a:	fff5c703          	lbu	a4,-1(a1)
    8000105e:	fee78fa3          	sb	a4,-1(a5)
    80001062:	fb65                	bnez	a4,80001052 <safestrcpy+0x16>
    80001064:	00078023          	sb	zero,0(a5)
    80001068:	6422                	ld	s0,8(sp)
    8000106a:	0141                	addi	sp,sp,16
    8000106c:	8082                	ret

000000008000106e <strlen>:
    8000106e:	1141                	addi	sp,sp,-16
    80001070:	e422                	sd	s0,8(sp)
    80001072:	0800                	addi	s0,sp,16
    80001074:	00054783          	lbu	a5,0(a0)
    80001078:	cf91                	beqz	a5,80001094 <strlen+0x26>
    8000107a:	0505                	addi	a0,a0,1
    8000107c:	87aa                	mv	a5,a0
    8000107e:	4685                	li	a3,1
    80001080:	9e89                	subw	a3,a3,a0
    80001082:	00f6853b          	addw	a0,a3,a5
    80001086:	0785                	addi	a5,a5,1
    80001088:	fff7c703          	lbu	a4,-1(a5)
    8000108c:	fb7d                	bnez	a4,80001082 <strlen+0x14>
    8000108e:	6422                	ld	s0,8(sp)
    80001090:	0141                	addi	sp,sp,16
    80001092:	8082                	ret
    80001094:	4501                	li	a0,0
    80001096:	bfe5                	j	8000108e <strlen+0x20>

0000000080001098 <main>:
    80001098:	1141                	addi	sp,sp,-16
    8000109a:	e406                	sd	ra,8(sp)
    8000109c:	e022                	sd	s0,0(sp)
    8000109e:	0800                	addi	s0,sp,16
    800010a0:	00001097          	auipc	ra,0x1
    800010a4:	d4c080e7          	jalr	-692(ra) # 80001dec <cpuid>
    800010a8:	00009717          	auipc	a4,0x9
    800010ac:	b4070713          	addi	a4,a4,-1216 # 80009be8 <started>
    800010b0:	c139                	beqz	a0,800010f6 <main+0x5e>
    800010b2:	431c                	lw	a5,0(a4)
    800010b4:	2781                	sext.w	a5,a5
    800010b6:	dff5                	beqz	a5,800010b2 <main+0x1a>
    800010b8:	0ff0000f          	fence
    800010bc:	00001097          	auipc	ra,0x1
    800010c0:	d30080e7          	jalr	-720(ra) # 80001dec <cpuid>
    800010c4:	85aa                	mv	a1,a0
    800010c6:	00008517          	auipc	a0,0x8
    800010ca:	05250513          	addi	a0,a0,82 # 80009118 <digits+0xd8>
    800010ce:	fffff097          	auipc	ra,0xfffff
    800010d2:	4c0080e7          	jalr	1216(ra) # 8000058e <printf>
    800010d6:	00000097          	auipc	ra,0x0
    800010da:	0d8080e7          	jalr	216(ra) # 800011ae <kvminithart>
    800010de:	00002097          	auipc	ra,0x2
    800010e2:	f8e080e7          	jalr	-114(ra) # 8000306c <trapinithart>
    800010e6:	00006097          	auipc	ra,0x6
    800010ea:	a2a080e7          	jalr	-1494(ra) # 80006b10 <plicinithart>
    800010ee:	00002097          	auipc	ra,0x2
    800010f2:	d1e080e7          	jalr	-738(ra) # 80002e0c <scheduler>
    800010f6:	fffff097          	auipc	ra,0xfffff
    800010fa:	360080e7          	jalr	864(ra) # 80000456 <consoleinit>
    800010fe:	fffff097          	auipc	ra,0xfffff
    80001102:	676080e7          	jalr	1654(ra) # 80000774 <printfinit>
    80001106:	00008517          	auipc	a0,0x8
    8000110a:	02250513          	addi	a0,a0,34 # 80009128 <digits+0xe8>
    8000110e:	fffff097          	auipc	ra,0xfffff
    80001112:	480080e7          	jalr	1152(ra) # 8000058e <printf>
    80001116:	00008517          	auipc	a0,0x8
    8000111a:	fea50513          	addi	a0,a0,-22 # 80009100 <digits+0xc0>
    8000111e:	fffff097          	auipc	ra,0xfffff
    80001122:	470080e7          	jalr	1136(ra) # 8000058e <printf>
    80001126:	00008517          	auipc	a0,0x8
    8000112a:	00250513          	addi	a0,a0,2 # 80009128 <digits+0xe8>
    8000112e:	fffff097          	auipc	ra,0xfffff
    80001132:	460080e7          	jalr	1120(ra) # 8000058e <printf>
    80001136:	00000097          	auipc	ra,0x0
    8000113a:	b1c080e7          	jalr	-1252(ra) # 80000c52 <kinit>
    8000113e:	00000097          	auipc	ra,0x0
    80001142:	326080e7          	jalr	806(ra) # 80001464 <kvminit>
    80001146:	00000097          	auipc	ra,0x0
    8000114a:	068080e7          	jalr	104(ra) # 800011ae <kvminithart>
    8000114e:	00001097          	auipc	ra,0x1
    80001152:	bca080e7          	jalr	-1078(ra) # 80001d18 <procinit>
    80001156:	00002097          	auipc	ra,0x2
    8000115a:	eee080e7          	jalr	-274(ra) # 80003044 <trapinit>
    8000115e:	00002097          	auipc	ra,0x2
    80001162:	f0e080e7          	jalr	-242(ra) # 8000306c <trapinithart>
    80001166:	00006097          	auipc	ra,0x6
    8000116a:	994080e7          	jalr	-1644(ra) # 80006afa <plicinit>
    8000116e:	00006097          	auipc	ra,0x6
    80001172:	9a2080e7          	jalr	-1630(ra) # 80006b10 <plicinithart>
    80001176:	00003097          	auipc	ra,0x3
    8000117a:	b4e080e7          	jalr	-1202(ra) # 80003cc4 <binit>
    8000117e:	00003097          	auipc	ra,0x3
    80001182:	1f2080e7          	jalr	498(ra) # 80004370 <iinit>
    80001186:	00004097          	auipc	ra,0x4
    8000118a:	190080e7          	jalr	400(ra) # 80005316 <fileinit>
    8000118e:	00006097          	auipc	ra,0x6
    80001192:	a8a080e7          	jalr	-1398(ra) # 80006c18 <virtio_disk_init>
    80001196:	00001097          	auipc	ra,0x1
    8000119a:	fc8080e7          	jalr	-56(ra) # 8000215e <userinit>
    8000119e:	0ff0000f          	fence
    800011a2:	4785                	li	a5,1
    800011a4:	00009717          	auipc	a4,0x9
    800011a8:	a4f72223          	sw	a5,-1468(a4) # 80009be8 <started>
    800011ac:	b789                	j	800010ee <main+0x56>

00000000800011ae <kvminithart>:
    800011ae:	1141                	addi	sp,sp,-16
    800011b0:	e422                	sd	s0,8(sp)
    800011b2:	0800                	addi	s0,sp,16
    800011b4:	12000073          	sfence.vma
    800011b8:	00009797          	auipc	a5,0x9
    800011bc:	a387b783          	ld	a5,-1480(a5) # 80009bf0 <kernel_pagetable>
    800011c0:	83b1                	srli	a5,a5,0xc
    800011c2:	577d                	li	a4,-1
    800011c4:	177e                	slli	a4,a4,0x3f
    800011c6:	8fd9                	or	a5,a5,a4
    800011c8:	18079073          	csrw	satp,a5
    800011cc:	12000073          	sfence.vma
    800011d0:	6422                	ld	s0,8(sp)
    800011d2:	0141                	addi	sp,sp,16
    800011d4:	8082                	ret

00000000800011d6 <walk>:
    800011d6:	7139                	addi	sp,sp,-64
    800011d8:	fc06                	sd	ra,56(sp)
    800011da:	f822                	sd	s0,48(sp)
    800011dc:	f426                	sd	s1,40(sp)
    800011de:	f04a                	sd	s2,32(sp)
    800011e0:	ec4e                	sd	s3,24(sp)
    800011e2:	e852                	sd	s4,16(sp)
    800011e4:	e456                	sd	s5,8(sp)
    800011e6:	e05a                	sd	s6,0(sp)
    800011e8:	0080                	addi	s0,sp,64
    800011ea:	84aa                	mv	s1,a0
    800011ec:	89ae                	mv	s3,a1
    800011ee:	8ab2                	mv	s5,a2
    800011f0:	57fd                	li	a5,-1
    800011f2:	83e9                	srli	a5,a5,0x1a
    800011f4:	4a79                	li	s4,30
    800011f6:	4b31                	li	s6,12
    800011f8:	04b7f263          	bgeu	a5,a1,8000123c <walk+0x66>
    800011fc:	00008517          	auipc	a0,0x8
    80001200:	f3450513          	addi	a0,a0,-204 # 80009130 <digits+0xf0>
    80001204:	fffff097          	auipc	ra,0xfffff
    80001208:	340080e7          	jalr	832(ra) # 80000544 <panic>
    8000120c:	060a8663          	beqz	s5,80001278 <walk+0xa2>
    80001210:	00000097          	auipc	ra,0x0
    80001214:	a86080e7          	jalr	-1402(ra) # 80000c96 <kalloc>
    80001218:	84aa                	mv	s1,a0
    8000121a:	c529                	beqz	a0,80001264 <walk+0x8e>
    8000121c:	6605                	lui	a2,0x1
    8000121e:	4581                	li	a1,0
    80001220:	00000097          	auipc	ra,0x0
    80001224:	cca080e7          	jalr	-822(ra) # 80000eea <memset>
    80001228:	00c4d793          	srli	a5,s1,0xc
    8000122c:	07aa                	slli	a5,a5,0xa
    8000122e:	0017e793          	ori	a5,a5,1
    80001232:	00f93023          	sd	a5,0(s2)
    80001236:	3a5d                	addiw	s4,s4,-9
    80001238:	036a0063          	beq	s4,s6,80001258 <walk+0x82>
    8000123c:	0149d933          	srl	s2,s3,s4
    80001240:	1ff97913          	andi	s2,s2,511
    80001244:	090e                	slli	s2,s2,0x3
    80001246:	9926                	add	s2,s2,s1
    80001248:	00093483          	ld	s1,0(s2)
    8000124c:	0014f793          	andi	a5,s1,1
    80001250:	dfd5                	beqz	a5,8000120c <walk+0x36>
    80001252:	80a9                	srli	s1,s1,0xa
    80001254:	04b2                	slli	s1,s1,0xc
    80001256:	b7c5                	j	80001236 <walk+0x60>
    80001258:	00c9d513          	srli	a0,s3,0xc
    8000125c:	1ff57513          	andi	a0,a0,511
    80001260:	050e                	slli	a0,a0,0x3
    80001262:	9526                	add	a0,a0,s1
    80001264:	70e2                	ld	ra,56(sp)
    80001266:	7442                	ld	s0,48(sp)
    80001268:	74a2                	ld	s1,40(sp)
    8000126a:	7902                	ld	s2,32(sp)
    8000126c:	69e2                	ld	s3,24(sp)
    8000126e:	6a42                	ld	s4,16(sp)
    80001270:	6aa2                	ld	s5,8(sp)
    80001272:	6b02                	ld	s6,0(sp)
    80001274:	6121                	addi	sp,sp,64
    80001276:	8082                	ret
    80001278:	4501                	li	a0,0
    8000127a:	b7ed                	j	80001264 <walk+0x8e>

000000008000127c <walkaddr>:
    8000127c:	57fd                	li	a5,-1
    8000127e:	83e9                	srli	a5,a5,0x1a
    80001280:	00b7f463          	bgeu	a5,a1,80001288 <walkaddr+0xc>
    80001284:	4501                	li	a0,0
    80001286:	8082                	ret
    80001288:	1141                	addi	sp,sp,-16
    8000128a:	e406                	sd	ra,8(sp)
    8000128c:	e022                	sd	s0,0(sp)
    8000128e:	0800                	addi	s0,sp,16
    80001290:	4601                	li	a2,0
    80001292:	00000097          	auipc	ra,0x0
    80001296:	f44080e7          	jalr	-188(ra) # 800011d6 <walk>
    8000129a:	c105                	beqz	a0,800012ba <walkaddr+0x3e>
    8000129c:	611c                	ld	a5,0(a0)
    8000129e:	0117f693          	andi	a3,a5,17
    800012a2:	4745                	li	a4,17
    800012a4:	4501                	li	a0,0
    800012a6:	00e68663          	beq	a3,a4,800012b2 <walkaddr+0x36>
    800012aa:	60a2                	ld	ra,8(sp)
    800012ac:	6402                	ld	s0,0(sp)
    800012ae:	0141                	addi	sp,sp,16
    800012b0:	8082                	ret
    800012b2:	00a7d513          	srli	a0,a5,0xa
    800012b6:	0532                	slli	a0,a0,0xc
    800012b8:	bfcd                	j	800012aa <walkaddr+0x2e>
    800012ba:	4501                	li	a0,0
    800012bc:	b7fd                	j	800012aa <walkaddr+0x2e>

00000000800012be <mappages>:
    800012be:	715d                	addi	sp,sp,-80
    800012c0:	e486                	sd	ra,72(sp)
    800012c2:	e0a2                	sd	s0,64(sp)
    800012c4:	fc26                	sd	s1,56(sp)
    800012c6:	f84a                	sd	s2,48(sp)
    800012c8:	f44e                	sd	s3,40(sp)
    800012ca:	f052                	sd	s4,32(sp)
    800012cc:	ec56                	sd	s5,24(sp)
    800012ce:	e85a                	sd	s6,16(sp)
    800012d0:	e45e                	sd	s7,8(sp)
    800012d2:	0880                	addi	s0,sp,80
    800012d4:	c205                	beqz	a2,800012f4 <mappages+0x36>
    800012d6:	8aaa                	mv	s5,a0
    800012d8:	8b3a                	mv	s6,a4
    800012da:	77fd                	lui	a5,0xfffff
    800012dc:	00f5fa33          	and	s4,a1,a5
    800012e0:	15fd                	addi	a1,a1,-1
    800012e2:	00c589b3          	add	s3,a1,a2
    800012e6:	00f9f9b3          	and	s3,s3,a5
    800012ea:	8952                	mv	s2,s4
    800012ec:	41468a33          	sub	s4,a3,s4
    800012f0:	6b85                	lui	s7,0x1
    800012f2:	a015                	j	80001316 <mappages+0x58>
    800012f4:	00008517          	auipc	a0,0x8
    800012f8:	e4450513          	addi	a0,a0,-444 # 80009138 <digits+0xf8>
    800012fc:	fffff097          	auipc	ra,0xfffff
    80001300:	248080e7          	jalr	584(ra) # 80000544 <panic>
    80001304:	00008517          	auipc	a0,0x8
    80001308:	e4450513          	addi	a0,a0,-444 # 80009148 <digits+0x108>
    8000130c:	fffff097          	auipc	ra,0xfffff
    80001310:	238080e7          	jalr	568(ra) # 80000544 <panic>
    80001314:	995e                	add	s2,s2,s7
    80001316:	012a04b3          	add	s1,s4,s2
    8000131a:	4605                	li	a2,1
    8000131c:	85ca                	mv	a1,s2
    8000131e:	8556                	mv	a0,s5
    80001320:	00000097          	auipc	ra,0x0
    80001324:	eb6080e7          	jalr	-330(ra) # 800011d6 <walk>
    80001328:	cd19                	beqz	a0,80001346 <mappages+0x88>
    8000132a:	611c                	ld	a5,0(a0)
    8000132c:	8b85                	andi	a5,a5,1
    8000132e:	fbf9                	bnez	a5,80001304 <mappages+0x46>
    80001330:	80b1                	srli	s1,s1,0xc
    80001332:	04aa                	slli	s1,s1,0xa
    80001334:	0164e4b3          	or	s1,s1,s6
    80001338:	0014e493          	ori	s1,s1,1
    8000133c:	e104                	sd	s1,0(a0)
    8000133e:	fd391be3          	bne	s2,s3,80001314 <mappages+0x56>
    80001342:	4501                	li	a0,0
    80001344:	a011                	j	80001348 <mappages+0x8a>
    80001346:	557d                	li	a0,-1
    80001348:	60a6                	ld	ra,72(sp)
    8000134a:	6406                	ld	s0,64(sp)
    8000134c:	74e2                	ld	s1,56(sp)
    8000134e:	7942                	ld	s2,48(sp)
    80001350:	79a2                	ld	s3,40(sp)
    80001352:	7a02                	ld	s4,32(sp)
    80001354:	6ae2                	ld	s5,24(sp)
    80001356:	6b42                	ld	s6,16(sp)
    80001358:	6ba2                	ld	s7,8(sp)
    8000135a:	6161                	addi	sp,sp,80
    8000135c:	8082                	ret

000000008000135e <kvmmap>:
    8000135e:	1141                	addi	sp,sp,-16
    80001360:	e406                	sd	ra,8(sp)
    80001362:	e022                	sd	s0,0(sp)
    80001364:	0800                	addi	s0,sp,16
    80001366:	87b6                	mv	a5,a3
    80001368:	86b2                	mv	a3,a2
    8000136a:	863e                	mv	a2,a5
    8000136c:	00000097          	auipc	ra,0x0
    80001370:	f52080e7          	jalr	-174(ra) # 800012be <mappages>
    80001374:	e509                	bnez	a0,8000137e <kvmmap+0x20>
    80001376:	60a2                	ld	ra,8(sp)
    80001378:	6402                	ld	s0,0(sp)
    8000137a:	0141                	addi	sp,sp,16
    8000137c:	8082                	ret
    8000137e:	00008517          	auipc	a0,0x8
    80001382:	dda50513          	addi	a0,a0,-550 # 80009158 <digits+0x118>
    80001386:	fffff097          	auipc	ra,0xfffff
    8000138a:	1be080e7          	jalr	446(ra) # 80000544 <panic>

000000008000138e <kvmmake>:
    8000138e:	1101                	addi	sp,sp,-32
    80001390:	ec06                	sd	ra,24(sp)
    80001392:	e822                	sd	s0,16(sp)
    80001394:	e426                	sd	s1,8(sp)
    80001396:	e04a                	sd	s2,0(sp)
    80001398:	1000                	addi	s0,sp,32
    8000139a:	00000097          	auipc	ra,0x0
    8000139e:	8fc080e7          	jalr	-1796(ra) # 80000c96 <kalloc>
    800013a2:	84aa                	mv	s1,a0
    800013a4:	6605                	lui	a2,0x1
    800013a6:	4581                	li	a1,0
    800013a8:	00000097          	auipc	ra,0x0
    800013ac:	b42080e7          	jalr	-1214(ra) # 80000eea <memset>
    800013b0:	4719                	li	a4,6
    800013b2:	6685                	lui	a3,0x1
    800013b4:	10000637          	lui	a2,0x10000
    800013b8:	100005b7          	lui	a1,0x10000
    800013bc:	8526                	mv	a0,s1
    800013be:	00000097          	auipc	ra,0x0
    800013c2:	fa0080e7          	jalr	-96(ra) # 8000135e <kvmmap>
    800013c6:	4719                	li	a4,6
    800013c8:	6685                	lui	a3,0x1
    800013ca:	10001637          	lui	a2,0x10001
    800013ce:	100015b7          	lui	a1,0x10001
    800013d2:	8526                	mv	a0,s1
    800013d4:	00000097          	auipc	ra,0x0
    800013d8:	f8a080e7          	jalr	-118(ra) # 8000135e <kvmmap>
    800013dc:	4719                	li	a4,6
    800013de:	004006b7          	lui	a3,0x400
    800013e2:	0c000637          	lui	a2,0xc000
    800013e6:	0c0005b7          	lui	a1,0xc000
    800013ea:	8526                	mv	a0,s1
    800013ec:	00000097          	auipc	ra,0x0
    800013f0:	f72080e7          	jalr	-142(ra) # 8000135e <kvmmap>
    800013f4:	00008917          	auipc	s2,0x8
    800013f8:	c0c90913          	addi	s2,s2,-1012 # 80009000 <etext>
    800013fc:	4729                	li	a4,10
    800013fe:	80008697          	auipc	a3,0x80008
    80001402:	c0268693          	addi	a3,a3,-1022 # 9000 <_entry-0x7fff7000>
    80001406:	4605                	li	a2,1
    80001408:	067e                	slli	a2,a2,0x1f
    8000140a:	85b2                	mv	a1,a2
    8000140c:	8526                	mv	a0,s1
    8000140e:	00000097          	auipc	ra,0x0
    80001412:	f50080e7          	jalr	-176(ra) # 8000135e <kvmmap>
    80001416:	4719                	li	a4,6
    80001418:	46c5                	li	a3,17
    8000141a:	06ee                	slli	a3,a3,0x1b
    8000141c:	412686b3          	sub	a3,a3,s2
    80001420:	864a                	mv	a2,s2
    80001422:	85ca                	mv	a1,s2
    80001424:	8526                	mv	a0,s1
    80001426:	00000097          	auipc	ra,0x0
    8000142a:	f38080e7          	jalr	-200(ra) # 8000135e <kvmmap>
    8000142e:	4729                	li	a4,10
    80001430:	6685                	lui	a3,0x1
    80001432:	00007617          	auipc	a2,0x7
    80001436:	bce60613          	addi	a2,a2,-1074 # 80008000 <_trampoline>
    8000143a:	040005b7          	lui	a1,0x4000
    8000143e:	15fd                	addi	a1,a1,-1
    80001440:	05b2                	slli	a1,a1,0xc
    80001442:	8526                	mv	a0,s1
    80001444:	00000097          	auipc	ra,0x0
    80001448:	f1a080e7          	jalr	-230(ra) # 8000135e <kvmmap>
    8000144c:	8526                	mv	a0,s1
    8000144e:	00001097          	auipc	ra,0x1
    80001452:	834080e7          	jalr	-1996(ra) # 80001c82 <proc_mapstacks>
    80001456:	8526                	mv	a0,s1
    80001458:	60e2                	ld	ra,24(sp)
    8000145a:	6442                	ld	s0,16(sp)
    8000145c:	64a2                	ld	s1,8(sp)
    8000145e:	6902                	ld	s2,0(sp)
    80001460:	6105                	addi	sp,sp,32
    80001462:	8082                	ret

0000000080001464 <kvminit>:
    80001464:	1141                	addi	sp,sp,-16
    80001466:	e406                	sd	ra,8(sp)
    80001468:	e022                	sd	s0,0(sp)
    8000146a:	0800                	addi	s0,sp,16
    8000146c:	00000097          	auipc	ra,0x0
    80001470:	f22080e7          	jalr	-222(ra) # 8000138e <kvmmake>
    80001474:	00008797          	auipc	a5,0x8
    80001478:	76a7be23          	sd	a0,1916(a5) # 80009bf0 <kernel_pagetable>
    8000147c:	60a2                	ld	ra,8(sp)
    8000147e:	6402                	ld	s0,0(sp)
    80001480:	0141                	addi	sp,sp,16
    80001482:	8082                	ret

0000000080001484 <uvmunmap>:
    80001484:	715d                	addi	sp,sp,-80
    80001486:	e486                	sd	ra,72(sp)
    80001488:	e0a2                	sd	s0,64(sp)
    8000148a:	fc26                	sd	s1,56(sp)
    8000148c:	f84a                	sd	s2,48(sp)
    8000148e:	f44e                	sd	s3,40(sp)
    80001490:	f052                	sd	s4,32(sp)
    80001492:	ec56                	sd	s5,24(sp)
    80001494:	e85a                	sd	s6,16(sp)
    80001496:	e45e                	sd	s7,8(sp)
    80001498:	0880                	addi	s0,sp,80
    8000149a:	03459793          	slli	a5,a1,0x34
    8000149e:	e795                	bnez	a5,800014ca <uvmunmap+0x46>
    800014a0:	8a2a                	mv	s4,a0
    800014a2:	892e                	mv	s2,a1
    800014a4:	8ab6                	mv	s5,a3
    800014a6:	0632                	slli	a2,a2,0xc
    800014a8:	00b609b3          	add	s3,a2,a1
    800014ac:	4b85                	li	s7,1
    800014ae:	6b05                	lui	s6,0x1
    800014b0:	0735e863          	bltu	a1,s3,80001520 <uvmunmap+0x9c>
    800014b4:	60a6                	ld	ra,72(sp)
    800014b6:	6406                	ld	s0,64(sp)
    800014b8:	74e2                	ld	s1,56(sp)
    800014ba:	7942                	ld	s2,48(sp)
    800014bc:	79a2                	ld	s3,40(sp)
    800014be:	7a02                	ld	s4,32(sp)
    800014c0:	6ae2                	ld	s5,24(sp)
    800014c2:	6b42                	ld	s6,16(sp)
    800014c4:	6ba2                	ld	s7,8(sp)
    800014c6:	6161                	addi	sp,sp,80
    800014c8:	8082                	ret
    800014ca:	00008517          	auipc	a0,0x8
    800014ce:	c9650513          	addi	a0,a0,-874 # 80009160 <digits+0x120>
    800014d2:	fffff097          	auipc	ra,0xfffff
    800014d6:	072080e7          	jalr	114(ra) # 80000544 <panic>
    800014da:	00008517          	auipc	a0,0x8
    800014de:	c9e50513          	addi	a0,a0,-866 # 80009178 <digits+0x138>
    800014e2:	fffff097          	auipc	ra,0xfffff
    800014e6:	062080e7          	jalr	98(ra) # 80000544 <panic>
    800014ea:	00008517          	auipc	a0,0x8
    800014ee:	c9e50513          	addi	a0,a0,-866 # 80009188 <digits+0x148>
    800014f2:	fffff097          	auipc	ra,0xfffff
    800014f6:	052080e7          	jalr	82(ra) # 80000544 <panic>
    800014fa:	00008517          	auipc	a0,0x8
    800014fe:	ca650513          	addi	a0,a0,-858 # 800091a0 <digits+0x160>
    80001502:	fffff097          	auipc	ra,0xfffff
    80001506:	042080e7          	jalr	66(ra) # 80000544 <panic>
    8000150a:	8129                	srli	a0,a0,0xa
    8000150c:	0532                	slli	a0,a0,0xc
    8000150e:	fffff097          	auipc	ra,0xfffff
    80001512:	552080e7          	jalr	1362(ra) # 80000a60 <kfree>
    80001516:	0004b023          	sd	zero,0(s1)
    8000151a:	995a                	add	s2,s2,s6
    8000151c:	f9397ce3          	bgeu	s2,s3,800014b4 <uvmunmap+0x30>
    80001520:	4601                	li	a2,0
    80001522:	85ca                	mv	a1,s2
    80001524:	8552                	mv	a0,s4
    80001526:	00000097          	auipc	ra,0x0
    8000152a:	cb0080e7          	jalr	-848(ra) # 800011d6 <walk>
    8000152e:	84aa                	mv	s1,a0
    80001530:	d54d                	beqz	a0,800014da <uvmunmap+0x56>
    80001532:	6108                	ld	a0,0(a0)
    80001534:	00157793          	andi	a5,a0,1
    80001538:	dbcd                	beqz	a5,800014ea <uvmunmap+0x66>
    8000153a:	3ff57793          	andi	a5,a0,1023
    8000153e:	fb778ee3          	beq	a5,s7,800014fa <uvmunmap+0x76>
    80001542:	fc0a8ae3          	beqz	s5,80001516 <uvmunmap+0x92>
    80001546:	b7d1                	j	8000150a <uvmunmap+0x86>

0000000080001548 <uvmcreate>:
    80001548:	1101                	addi	sp,sp,-32
    8000154a:	ec06                	sd	ra,24(sp)
    8000154c:	e822                	sd	s0,16(sp)
    8000154e:	e426                	sd	s1,8(sp)
    80001550:	1000                	addi	s0,sp,32
    80001552:	fffff097          	auipc	ra,0xfffff
    80001556:	744080e7          	jalr	1860(ra) # 80000c96 <kalloc>
    8000155a:	84aa                	mv	s1,a0
    8000155c:	c519                	beqz	a0,8000156a <uvmcreate+0x22>
    8000155e:	6605                	lui	a2,0x1
    80001560:	4581                	li	a1,0
    80001562:	00000097          	auipc	ra,0x0
    80001566:	988080e7          	jalr	-1656(ra) # 80000eea <memset>
    8000156a:	8526                	mv	a0,s1
    8000156c:	60e2                	ld	ra,24(sp)
    8000156e:	6442                	ld	s0,16(sp)
    80001570:	64a2                	ld	s1,8(sp)
    80001572:	6105                	addi	sp,sp,32
    80001574:	8082                	ret

0000000080001576 <uvmfirst>:
    80001576:	7179                	addi	sp,sp,-48
    80001578:	f406                	sd	ra,40(sp)
    8000157a:	f022                	sd	s0,32(sp)
    8000157c:	ec26                	sd	s1,24(sp)
    8000157e:	e84a                	sd	s2,16(sp)
    80001580:	e44e                	sd	s3,8(sp)
    80001582:	e052                	sd	s4,0(sp)
    80001584:	1800                	addi	s0,sp,48
    80001586:	6785                	lui	a5,0x1
    80001588:	04f67863          	bgeu	a2,a5,800015d8 <uvmfirst+0x62>
    8000158c:	8a2a                	mv	s4,a0
    8000158e:	89ae                	mv	s3,a1
    80001590:	84b2                	mv	s1,a2
    80001592:	fffff097          	auipc	ra,0xfffff
    80001596:	704080e7          	jalr	1796(ra) # 80000c96 <kalloc>
    8000159a:	892a                	mv	s2,a0
    8000159c:	6605                	lui	a2,0x1
    8000159e:	4581                	li	a1,0
    800015a0:	00000097          	auipc	ra,0x0
    800015a4:	94a080e7          	jalr	-1718(ra) # 80000eea <memset>
    800015a8:	4779                	li	a4,30
    800015aa:	86ca                	mv	a3,s2
    800015ac:	6605                	lui	a2,0x1
    800015ae:	4581                	li	a1,0
    800015b0:	8552                	mv	a0,s4
    800015b2:	00000097          	auipc	ra,0x0
    800015b6:	d0c080e7          	jalr	-756(ra) # 800012be <mappages>
    800015ba:	8626                	mv	a2,s1
    800015bc:	85ce                	mv	a1,s3
    800015be:	854a                	mv	a0,s2
    800015c0:	00000097          	auipc	ra,0x0
    800015c4:	98a080e7          	jalr	-1654(ra) # 80000f4a <memmove>
    800015c8:	70a2                	ld	ra,40(sp)
    800015ca:	7402                	ld	s0,32(sp)
    800015cc:	64e2                	ld	s1,24(sp)
    800015ce:	6942                	ld	s2,16(sp)
    800015d0:	69a2                	ld	s3,8(sp)
    800015d2:	6a02                	ld	s4,0(sp)
    800015d4:	6145                	addi	sp,sp,48
    800015d6:	8082                	ret
    800015d8:	00008517          	auipc	a0,0x8
    800015dc:	be050513          	addi	a0,a0,-1056 # 800091b8 <digits+0x178>
    800015e0:	fffff097          	auipc	ra,0xfffff
    800015e4:	f64080e7          	jalr	-156(ra) # 80000544 <panic>

00000000800015e8 <uvmdealloc>:
    800015e8:	1101                	addi	sp,sp,-32
    800015ea:	ec06                	sd	ra,24(sp)
    800015ec:	e822                	sd	s0,16(sp)
    800015ee:	e426                	sd	s1,8(sp)
    800015f0:	1000                	addi	s0,sp,32
    800015f2:	84ae                	mv	s1,a1
    800015f4:	00b67d63          	bgeu	a2,a1,8000160e <uvmdealloc+0x26>
    800015f8:	84b2                	mv	s1,a2
    800015fa:	6785                	lui	a5,0x1
    800015fc:	17fd                	addi	a5,a5,-1
    800015fe:	00f60733          	add	a4,a2,a5
    80001602:	767d                	lui	a2,0xfffff
    80001604:	8f71                	and	a4,a4,a2
    80001606:	97ae                	add	a5,a5,a1
    80001608:	8ff1                	and	a5,a5,a2
    8000160a:	00f76863          	bltu	a4,a5,8000161a <uvmdealloc+0x32>
    8000160e:	8526                	mv	a0,s1
    80001610:	60e2                	ld	ra,24(sp)
    80001612:	6442                	ld	s0,16(sp)
    80001614:	64a2                	ld	s1,8(sp)
    80001616:	6105                	addi	sp,sp,32
    80001618:	8082                	ret
    8000161a:	8f99                	sub	a5,a5,a4
    8000161c:	83b1                	srli	a5,a5,0xc
    8000161e:	4685                	li	a3,1
    80001620:	0007861b          	sext.w	a2,a5
    80001624:	85ba                	mv	a1,a4
    80001626:	00000097          	auipc	ra,0x0
    8000162a:	e5e080e7          	jalr	-418(ra) # 80001484 <uvmunmap>
    8000162e:	b7c5                	j	8000160e <uvmdealloc+0x26>

0000000080001630 <uvmalloc>:
    80001630:	0ab66563          	bltu	a2,a1,800016da <uvmalloc+0xaa>
    80001634:	7139                	addi	sp,sp,-64
    80001636:	fc06                	sd	ra,56(sp)
    80001638:	f822                	sd	s0,48(sp)
    8000163a:	f426                	sd	s1,40(sp)
    8000163c:	f04a                	sd	s2,32(sp)
    8000163e:	ec4e                	sd	s3,24(sp)
    80001640:	e852                	sd	s4,16(sp)
    80001642:	e456                	sd	s5,8(sp)
    80001644:	e05a                	sd	s6,0(sp)
    80001646:	0080                	addi	s0,sp,64
    80001648:	8aaa                	mv	s5,a0
    8000164a:	8a32                	mv	s4,a2
    8000164c:	6985                	lui	s3,0x1
    8000164e:	19fd                	addi	s3,s3,-1
    80001650:	95ce                	add	a1,a1,s3
    80001652:	79fd                	lui	s3,0xfffff
    80001654:	0135f9b3          	and	s3,a1,s3
    80001658:	08c9f363          	bgeu	s3,a2,800016de <uvmalloc+0xae>
    8000165c:	894e                	mv	s2,s3
    8000165e:	0126eb13          	ori	s6,a3,18
    80001662:	fffff097          	auipc	ra,0xfffff
    80001666:	634080e7          	jalr	1588(ra) # 80000c96 <kalloc>
    8000166a:	84aa                	mv	s1,a0
    8000166c:	c51d                	beqz	a0,8000169a <uvmalloc+0x6a>
    8000166e:	6605                	lui	a2,0x1
    80001670:	4581                	li	a1,0
    80001672:	00000097          	auipc	ra,0x0
    80001676:	878080e7          	jalr	-1928(ra) # 80000eea <memset>
    8000167a:	875a                	mv	a4,s6
    8000167c:	86a6                	mv	a3,s1
    8000167e:	6605                	lui	a2,0x1
    80001680:	85ca                	mv	a1,s2
    80001682:	8556                	mv	a0,s5
    80001684:	00000097          	auipc	ra,0x0
    80001688:	c3a080e7          	jalr	-966(ra) # 800012be <mappages>
    8000168c:	e90d                	bnez	a0,800016be <uvmalloc+0x8e>
    8000168e:	6785                	lui	a5,0x1
    80001690:	993e                	add	s2,s2,a5
    80001692:	fd4968e3          	bltu	s2,s4,80001662 <uvmalloc+0x32>
    80001696:	8552                	mv	a0,s4
    80001698:	a809                	j	800016aa <uvmalloc+0x7a>
    8000169a:	864e                	mv	a2,s3
    8000169c:	85ca                	mv	a1,s2
    8000169e:	8556                	mv	a0,s5
    800016a0:	00000097          	auipc	ra,0x0
    800016a4:	f48080e7          	jalr	-184(ra) # 800015e8 <uvmdealloc>
    800016a8:	4501                	li	a0,0
    800016aa:	70e2                	ld	ra,56(sp)
    800016ac:	7442                	ld	s0,48(sp)
    800016ae:	74a2                	ld	s1,40(sp)
    800016b0:	7902                	ld	s2,32(sp)
    800016b2:	69e2                	ld	s3,24(sp)
    800016b4:	6a42                	ld	s4,16(sp)
    800016b6:	6aa2                	ld	s5,8(sp)
    800016b8:	6b02                	ld	s6,0(sp)
    800016ba:	6121                	addi	sp,sp,64
    800016bc:	8082                	ret
    800016be:	8526                	mv	a0,s1
    800016c0:	fffff097          	auipc	ra,0xfffff
    800016c4:	3a0080e7          	jalr	928(ra) # 80000a60 <kfree>
    800016c8:	864e                	mv	a2,s3
    800016ca:	85ca                	mv	a1,s2
    800016cc:	8556                	mv	a0,s5
    800016ce:	00000097          	auipc	ra,0x0
    800016d2:	f1a080e7          	jalr	-230(ra) # 800015e8 <uvmdealloc>
    800016d6:	4501                	li	a0,0
    800016d8:	bfc9                	j	800016aa <uvmalloc+0x7a>
    800016da:	852e                	mv	a0,a1
    800016dc:	8082                	ret
    800016de:	8532                	mv	a0,a2
    800016e0:	b7e9                	j	800016aa <uvmalloc+0x7a>

00000000800016e2 <freewalk>:
    800016e2:	7179                	addi	sp,sp,-48
    800016e4:	f406                	sd	ra,40(sp)
    800016e6:	f022                	sd	s0,32(sp)
    800016e8:	ec26                	sd	s1,24(sp)
    800016ea:	e84a                	sd	s2,16(sp)
    800016ec:	e44e                	sd	s3,8(sp)
    800016ee:	e052                	sd	s4,0(sp)
    800016f0:	1800                	addi	s0,sp,48
    800016f2:	8a2a                	mv	s4,a0
    800016f4:	84aa                	mv	s1,a0
    800016f6:	6905                	lui	s2,0x1
    800016f8:	992a                	add	s2,s2,a0
    800016fa:	4985                	li	s3,1
    800016fc:	a821                	j	80001714 <freewalk+0x32>
    800016fe:	8129                	srli	a0,a0,0xa
    80001700:	0532                	slli	a0,a0,0xc
    80001702:	00000097          	auipc	ra,0x0
    80001706:	fe0080e7          	jalr	-32(ra) # 800016e2 <freewalk>
    8000170a:	0004b023          	sd	zero,0(s1)
    8000170e:	04a1                	addi	s1,s1,8
    80001710:	03248163          	beq	s1,s2,80001732 <freewalk+0x50>
    80001714:	6088                	ld	a0,0(s1)
    80001716:	00f57793          	andi	a5,a0,15
    8000171a:	ff3782e3          	beq	a5,s3,800016fe <freewalk+0x1c>
    8000171e:	8905                	andi	a0,a0,1
    80001720:	d57d                	beqz	a0,8000170e <freewalk+0x2c>
    80001722:	00008517          	auipc	a0,0x8
    80001726:	ab650513          	addi	a0,a0,-1354 # 800091d8 <digits+0x198>
    8000172a:	fffff097          	auipc	ra,0xfffff
    8000172e:	e1a080e7          	jalr	-486(ra) # 80000544 <panic>
    80001732:	8552                	mv	a0,s4
    80001734:	fffff097          	auipc	ra,0xfffff
    80001738:	32c080e7          	jalr	812(ra) # 80000a60 <kfree>
    8000173c:	70a2                	ld	ra,40(sp)
    8000173e:	7402                	ld	s0,32(sp)
    80001740:	64e2                	ld	s1,24(sp)
    80001742:	6942                	ld	s2,16(sp)
    80001744:	69a2                	ld	s3,8(sp)
    80001746:	6a02                	ld	s4,0(sp)
    80001748:	6145                	addi	sp,sp,48
    8000174a:	8082                	ret

000000008000174c <uvmfree>:
    8000174c:	1101                	addi	sp,sp,-32
    8000174e:	ec06                	sd	ra,24(sp)
    80001750:	e822                	sd	s0,16(sp)
    80001752:	e426                	sd	s1,8(sp)
    80001754:	1000                	addi	s0,sp,32
    80001756:	84aa                	mv	s1,a0
    80001758:	e999                	bnez	a1,8000176e <uvmfree+0x22>
    8000175a:	8526                	mv	a0,s1
    8000175c:	00000097          	auipc	ra,0x0
    80001760:	f86080e7          	jalr	-122(ra) # 800016e2 <freewalk>
    80001764:	60e2                	ld	ra,24(sp)
    80001766:	6442                	ld	s0,16(sp)
    80001768:	64a2                	ld	s1,8(sp)
    8000176a:	6105                	addi	sp,sp,32
    8000176c:	8082                	ret
    8000176e:	6605                	lui	a2,0x1
    80001770:	167d                	addi	a2,a2,-1
    80001772:	962e                	add	a2,a2,a1
    80001774:	4685                	li	a3,1
    80001776:	8231                	srli	a2,a2,0xc
    80001778:	4581                	li	a1,0
    8000177a:	00000097          	auipc	ra,0x0
    8000177e:	d0a080e7          	jalr	-758(ra) # 80001484 <uvmunmap>
    80001782:	bfe1                	j	8000175a <uvmfree+0xe>

0000000080001784 <uvmcopy>:
    80001784:	715d                	addi	sp,sp,-80
    80001786:	e486                	sd	ra,72(sp)
    80001788:	e0a2                	sd	s0,64(sp)
    8000178a:	fc26                	sd	s1,56(sp)
    8000178c:	f84a                	sd	s2,48(sp)
    8000178e:	f44e                	sd	s3,40(sp)
    80001790:	f052                	sd	s4,32(sp)
    80001792:	ec56                	sd	s5,24(sp)
    80001794:	e85a                	sd	s6,16(sp)
    80001796:	e45e                	sd	s7,8(sp)
    80001798:	0880                	addi	s0,sp,80
    8000179a:	c261                	beqz	a2,8000185a <uvmcopy+0xd6>
    8000179c:	8aaa                	mv	s5,a0
    8000179e:	8a2e                	mv	s4,a1
    800017a0:	89b2                	mv	s3,a2
    800017a2:	4481                	li	s1,0
    800017a4:	7b7d                	lui	s6,0xfffff
    800017a6:	002b5b13          	srli	s6,s6,0x2
    800017aa:	a0a1                	j	800017f2 <uvmcopy+0x6e>
    800017ac:	00008517          	auipc	a0,0x8
    800017b0:	a3c50513          	addi	a0,a0,-1476 # 800091e8 <digits+0x1a8>
    800017b4:	fffff097          	auipc	ra,0xfffff
    800017b8:	d90080e7          	jalr	-624(ra) # 80000544 <panic>
    800017bc:	00008517          	auipc	a0,0x8
    800017c0:	a4c50513          	addi	a0,a0,-1460 # 80009208 <digits+0x1c8>
    800017c4:	fffff097          	auipc	ra,0xfffff
    800017c8:	d80080e7          	jalr	-640(ra) # 80000544 <panic>
    800017cc:	86ca                	mv	a3,s2
    800017ce:	6605                	lui	a2,0x1
    800017d0:	85a6                	mv	a1,s1
    800017d2:	8552                	mv	a0,s4
    800017d4:	00000097          	auipc	ra,0x0
    800017d8:	aea080e7          	jalr	-1302(ra) # 800012be <mappages>
    800017dc:	8baa                	mv	s7,a0
    800017de:	e921                	bnez	a0,8000182e <uvmcopy+0xaa>
    800017e0:	854a                	mv	a0,s2
    800017e2:	fffff097          	auipc	ra,0xfffff
    800017e6:	3aa080e7          	jalr	938(ra) # 80000b8c <inc_page_ref>
    800017ea:	6785                	lui	a5,0x1
    800017ec:	94be                	add	s1,s1,a5
    800017ee:	0534fa63          	bgeu	s1,s3,80001842 <uvmcopy+0xbe>
    800017f2:	4601                	li	a2,0
    800017f4:	85a6                	mv	a1,s1
    800017f6:	8556                	mv	a0,s5
    800017f8:	00000097          	auipc	ra,0x0
    800017fc:	9de080e7          	jalr	-1570(ra) # 800011d6 <walk>
    80001800:	d555                	beqz	a0,800017ac <uvmcopy+0x28>
    80001802:	611c                	ld	a5,0(a0)
    80001804:	0017f713          	andi	a4,a5,1
    80001808:	db55                	beqz	a4,800017bc <uvmcopy+0x38>
    8000180a:	00a7d913          	srli	s2,a5,0xa
    8000180e:	0932                	slli	s2,s2,0xc
    80001810:	0007869b          	sext.w	a3,a5
    80001814:	3ff7f713          	andi	a4,a5,1023
    80001818:	8a91                	andi	a3,a3,4
    8000181a:	dacd                	beqz	a3,800017cc <uvmcopy+0x48>
    8000181c:	fdb77693          	andi	a3,a4,-37
    80001820:	0206e713          	ori	a4,a3,32
    80001824:	0167f7b3          	and	a5,a5,s6
    80001828:	8fd9                	or	a5,a5,a4
    8000182a:	e11c                	sd	a5,0(a0)
    8000182c:	b745                	j	800017cc <uvmcopy+0x48>
    8000182e:	4685                	li	a3,1
    80001830:	00c4d613          	srli	a2,s1,0xc
    80001834:	4581                	li	a1,0
    80001836:	8552                	mv	a0,s4
    80001838:	00000097          	auipc	ra,0x0
    8000183c:	c4c080e7          	jalr	-948(ra) # 80001484 <uvmunmap>
    80001840:	5bfd                	li	s7,-1
    80001842:	855e                	mv	a0,s7
    80001844:	60a6                	ld	ra,72(sp)
    80001846:	6406                	ld	s0,64(sp)
    80001848:	74e2                	ld	s1,56(sp)
    8000184a:	7942                	ld	s2,48(sp)
    8000184c:	79a2                	ld	s3,40(sp)
    8000184e:	7a02                	ld	s4,32(sp)
    80001850:	6ae2                	ld	s5,24(sp)
    80001852:	6b42                	ld	s6,16(sp)
    80001854:	6ba2                	ld	s7,8(sp)
    80001856:	6161                	addi	sp,sp,80
    80001858:	8082                	ret
    8000185a:	4b81                	li	s7,0
    8000185c:	b7dd                	j	80001842 <uvmcopy+0xbe>

000000008000185e <uvmclear>:
    8000185e:	1141                	addi	sp,sp,-16
    80001860:	e406                	sd	ra,8(sp)
    80001862:	e022                	sd	s0,0(sp)
    80001864:	0800                	addi	s0,sp,16
    80001866:	4601                	li	a2,0
    80001868:	00000097          	auipc	ra,0x0
    8000186c:	96e080e7          	jalr	-1682(ra) # 800011d6 <walk>
    80001870:	c901                	beqz	a0,80001880 <uvmclear+0x22>
    80001872:	611c                	ld	a5,0(a0)
    80001874:	9bbd                	andi	a5,a5,-17
    80001876:	e11c                	sd	a5,0(a0)
    80001878:	60a2                	ld	ra,8(sp)
    8000187a:	6402                	ld	s0,0(sp)
    8000187c:	0141                	addi	sp,sp,16
    8000187e:	8082                	ret
    80001880:	00008517          	auipc	a0,0x8
    80001884:	9a850513          	addi	a0,a0,-1624 # 80009228 <digits+0x1e8>
    80001888:	fffff097          	auipc	ra,0xfffff
    8000188c:	cbc080e7          	jalr	-836(ra) # 80000544 <panic>

0000000080001890 <copyout>:
    80001890:	c2d5                	beqz	a3,80001934 <copyout+0xa4>
    80001892:	711d                	addi	sp,sp,-96
    80001894:	ec86                	sd	ra,88(sp)
    80001896:	e8a2                	sd	s0,80(sp)
    80001898:	e4a6                	sd	s1,72(sp)
    8000189a:	e0ca                	sd	s2,64(sp)
    8000189c:	fc4e                	sd	s3,56(sp)
    8000189e:	f852                	sd	s4,48(sp)
    800018a0:	f456                	sd	s5,40(sp)
    800018a2:	f05a                	sd	s6,32(sp)
    800018a4:	ec5e                	sd	s7,24(sp)
    800018a6:	e862                	sd	s8,16(sp)
    800018a8:	e466                	sd	s9,8(sp)
    800018aa:	1080                	addi	s0,sp,96
    800018ac:	8baa                	mv	s7,a0
    800018ae:	89ae                	mv	s3,a1
    800018b0:	8b32                	mv	s6,a2
    800018b2:	8ab6                	mv	s5,a3
    800018b4:	7cfd                	lui	s9,0xfffff
    800018b6:	6c05                	lui	s8,0x1
    800018b8:	a081                	j	800018f8 <copyout+0x68>
    800018ba:	85de                	mv	a1,s7
    800018bc:	854a                	mv	a0,s2
    800018be:	00002097          	auipc	ra,0x2
    800018c2:	a7a080e7          	jalr	-1414(ra) # 80003338 <page_fault_handler>
    800018c6:	85ca                	mv	a1,s2
    800018c8:	855e                	mv	a0,s7
    800018ca:	00000097          	auipc	ra,0x0
    800018ce:	9b2080e7          	jalr	-1614(ra) # 8000127c <walkaddr>
    800018d2:	8a2a                	mv	s4,a0
    800018d4:	a0b9                	j	80001922 <copyout+0x92>
    800018d6:	41298533          	sub	a0,s3,s2
    800018da:	0004861b          	sext.w	a2,s1
    800018de:	85da                	mv	a1,s6
    800018e0:	9552                	add	a0,a0,s4
    800018e2:	fffff097          	auipc	ra,0xfffff
    800018e6:	668080e7          	jalr	1640(ra) # 80000f4a <memmove>
    800018ea:	409a8ab3          	sub	s5,s5,s1
    800018ee:	9b26                	add	s6,s6,s1
    800018f0:	018909b3          	add	s3,s2,s8
    800018f4:	020a8e63          	beqz	s5,80001930 <copyout+0xa0>
    800018f8:	0199f933          	and	s2,s3,s9
    800018fc:	85ca                	mv	a1,s2
    800018fe:	855e                	mv	a0,s7
    80001900:	00000097          	auipc	ra,0x0
    80001904:	97c080e7          	jalr	-1668(ra) # 8000127c <walkaddr>
    80001908:	8a2a                	mv	s4,a0
    8000190a:	c51d                	beqz	a0,80001938 <copyout+0xa8>
    8000190c:	4601                	li	a2,0
    8000190e:	85ca                	mv	a1,s2
    80001910:	855e                	mv	a0,s7
    80001912:	00000097          	auipc	ra,0x0
    80001916:	8c4080e7          	jalr	-1852(ra) # 800011d6 <walk>
    8000191a:	611c                	ld	a5,0(a0)
    8000191c:	0207f793          	andi	a5,a5,32
    80001920:	ffc9                	bnez	a5,800018ba <copyout+0x2a>
    80001922:	413904b3          	sub	s1,s2,s3
    80001926:	94e2                	add	s1,s1,s8
    80001928:	fa9af7e3          	bgeu	s5,s1,800018d6 <copyout+0x46>
    8000192c:	84d6                	mv	s1,s5
    8000192e:	b765                	j	800018d6 <copyout+0x46>
    80001930:	4501                	li	a0,0
    80001932:	a021                	j	8000193a <copyout+0xaa>
    80001934:	4501                	li	a0,0
    80001936:	8082                	ret
    80001938:	557d                	li	a0,-1
    8000193a:	60e6                	ld	ra,88(sp)
    8000193c:	6446                	ld	s0,80(sp)
    8000193e:	64a6                	ld	s1,72(sp)
    80001940:	6906                	ld	s2,64(sp)
    80001942:	79e2                	ld	s3,56(sp)
    80001944:	7a42                	ld	s4,48(sp)
    80001946:	7aa2                	ld	s5,40(sp)
    80001948:	7b02                	ld	s6,32(sp)
    8000194a:	6be2                	ld	s7,24(sp)
    8000194c:	6c42                	ld	s8,16(sp)
    8000194e:	6ca2                	ld	s9,8(sp)
    80001950:	6125                	addi	sp,sp,96
    80001952:	8082                	ret

0000000080001954 <copyin>:
    80001954:	c6bd                	beqz	a3,800019c2 <copyin+0x6e>
    80001956:	715d                	addi	sp,sp,-80
    80001958:	e486                	sd	ra,72(sp)
    8000195a:	e0a2                	sd	s0,64(sp)
    8000195c:	fc26                	sd	s1,56(sp)
    8000195e:	f84a                	sd	s2,48(sp)
    80001960:	f44e                	sd	s3,40(sp)
    80001962:	f052                	sd	s4,32(sp)
    80001964:	ec56                	sd	s5,24(sp)
    80001966:	e85a                	sd	s6,16(sp)
    80001968:	e45e                	sd	s7,8(sp)
    8000196a:	e062                	sd	s8,0(sp)
    8000196c:	0880                	addi	s0,sp,80
    8000196e:	8b2a                	mv	s6,a0
    80001970:	8a2e                	mv	s4,a1
    80001972:	8c32                	mv	s8,a2
    80001974:	89b6                	mv	s3,a3
    80001976:	7bfd                	lui	s7,0xfffff
    80001978:	6a85                	lui	s5,0x1
    8000197a:	a015                	j	8000199e <copyin+0x4a>
    8000197c:	9562                	add	a0,a0,s8
    8000197e:	0004861b          	sext.w	a2,s1
    80001982:	412505b3          	sub	a1,a0,s2
    80001986:	8552                	mv	a0,s4
    80001988:	fffff097          	auipc	ra,0xfffff
    8000198c:	5c2080e7          	jalr	1474(ra) # 80000f4a <memmove>
    80001990:	409989b3          	sub	s3,s3,s1
    80001994:	9a26                	add	s4,s4,s1
    80001996:	01590c33          	add	s8,s2,s5
    8000199a:	02098263          	beqz	s3,800019be <copyin+0x6a>
    8000199e:	017c7933          	and	s2,s8,s7
    800019a2:	85ca                	mv	a1,s2
    800019a4:	855a                	mv	a0,s6
    800019a6:	00000097          	auipc	ra,0x0
    800019aa:	8d6080e7          	jalr	-1834(ra) # 8000127c <walkaddr>
    800019ae:	cd01                	beqz	a0,800019c6 <copyin+0x72>
    800019b0:	418904b3          	sub	s1,s2,s8
    800019b4:	94d6                	add	s1,s1,s5
    800019b6:	fc99f3e3          	bgeu	s3,s1,8000197c <copyin+0x28>
    800019ba:	84ce                	mv	s1,s3
    800019bc:	b7c1                	j	8000197c <copyin+0x28>
    800019be:	4501                	li	a0,0
    800019c0:	a021                	j	800019c8 <copyin+0x74>
    800019c2:	4501                	li	a0,0
    800019c4:	8082                	ret
    800019c6:	557d                	li	a0,-1
    800019c8:	60a6                	ld	ra,72(sp)
    800019ca:	6406                	ld	s0,64(sp)
    800019cc:	74e2                	ld	s1,56(sp)
    800019ce:	7942                	ld	s2,48(sp)
    800019d0:	79a2                	ld	s3,40(sp)
    800019d2:	7a02                	ld	s4,32(sp)
    800019d4:	6ae2                	ld	s5,24(sp)
    800019d6:	6b42                	ld	s6,16(sp)
    800019d8:	6ba2                	ld	s7,8(sp)
    800019da:	6c02                	ld	s8,0(sp)
    800019dc:	6161                	addi	sp,sp,80
    800019de:	8082                	ret

00000000800019e0 <copyinstr>:
    800019e0:	c6c5                	beqz	a3,80001a88 <copyinstr+0xa8>
    800019e2:	715d                	addi	sp,sp,-80
    800019e4:	e486                	sd	ra,72(sp)
    800019e6:	e0a2                	sd	s0,64(sp)
    800019e8:	fc26                	sd	s1,56(sp)
    800019ea:	f84a                	sd	s2,48(sp)
    800019ec:	f44e                	sd	s3,40(sp)
    800019ee:	f052                	sd	s4,32(sp)
    800019f0:	ec56                	sd	s5,24(sp)
    800019f2:	e85a                	sd	s6,16(sp)
    800019f4:	e45e                	sd	s7,8(sp)
    800019f6:	0880                	addi	s0,sp,80
    800019f8:	8a2a                	mv	s4,a0
    800019fa:	8b2e                	mv	s6,a1
    800019fc:	8bb2                	mv	s7,a2
    800019fe:	84b6                	mv	s1,a3
    80001a00:	7afd                	lui	s5,0xfffff
    80001a02:	6985                	lui	s3,0x1
    80001a04:	a035                	j	80001a30 <copyinstr+0x50>
    80001a06:	00078023          	sb	zero,0(a5) # 1000 <_entry-0x7ffff000>
    80001a0a:	4785                	li	a5,1
    80001a0c:	0017b793          	seqz	a5,a5
    80001a10:	40f00533          	neg	a0,a5
    80001a14:	60a6                	ld	ra,72(sp)
    80001a16:	6406                	ld	s0,64(sp)
    80001a18:	74e2                	ld	s1,56(sp)
    80001a1a:	7942                	ld	s2,48(sp)
    80001a1c:	79a2                	ld	s3,40(sp)
    80001a1e:	7a02                	ld	s4,32(sp)
    80001a20:	6ae2                	ld	s5,24(sp)
    80001a22:	6b42                	ld	s6,16(sp)
    80001a24:	6ba2                	ld	s7,8(sp)
    80001a26:	6161                	addi	sp,sp,80
    80001a28:	8082                	ret
    80001a2a:	01390bb3          	add	s7,s2,s3
    80001a2e:	c8a9                	beqz	s1,80001a80 <copyinstr+0xa0>
    80001a30:	015bf933          	and	s2,s7,s5
    80001a34:	85ca                	mv	a1,s2
    80001a36:	8552                	mv	a0,s4
    80001a38:	00000097          	auipc	ra,0x0
    80001a3c:	844080e7          	jalr	-1980(ra) # 8000127c <walkaddr>
    80001a40:	c131                	beqz	a0,80001a84 <copyinstr+0xa4>
    80001a42:	41790833          	sub	a6,s2,s7
    80001a46:	984e                	add	a6,a6,s3
    80001a48:	0104f363          	bgeu	s1,a6,80001a4e <copyinstr+0x6e>
    80001a4c:	8826                	mv	a6,s1
    80001a4e:	955e                	add	a0,a0,s7
    80001a50:	41250533          	sub	a0,a0,s2
    80001a54:	fc080be3          	beqz	a6,80001a2a <copyinstr+0x4a>
    80001a58:	985a                	add	a6,a6,s6
    80001a5a:	87da                	mv	a5,s6
    80001a5c:	41650633          	sub	a2,a0,s6
    80001a60:	14fd                	addi	s1,s1,-1
    80001a62:	9b26                	add	s6,s6,s1
    80001a64:	00f60733          	add	a4,a2,a5
    80001a68:	00074703          	lbu	a4,0(a4)
    80001a6c:	df49                	beqz	a4,80001a06 <copyinstr+0x26>
    80001a6e:	00e78023          	sb	a4,0(a5)
    80001a72:	40fb04b3          	sub	s1,s6,a5
    80001a76:	0785                	addi	a5,a5,1
    80001a78:	ff0796e3          	bne	a5,a6,80001a64 <copyinstr+0x84>
    80001a7c:	8b42                	mv	s6,a6
    80001a7e:	b775                	j	80001a2a <copyinstr+0x4a>
    80001a80:	4781                	li	a5,0
    80001a82:	b769                	j	80001a0c <copyinstr+0x2c>
    80001a84:	557d                	li	a0,-1
    80001a86:	b779                	j	80001a14 <copyinstr+0x34>
    80001a88:	4781                	li	a5,0
    80001a8a:	0017b793          	seqz	a5,a5
    80001a8e:	40f00533          	neg	a0,a5
    80001a92:	8082                	ret

0000000080001a94 <sgenrand>:
    80001a94:	1141                	addi	sp,sp,-16
    80001a96:	e422                	sd	s0,8(sp)
    80001a98:	0800                	addi	s0,sp,16
    80001a9a:	00239717          	auipc	a4,0x239
    80001a9e:	e9670713          	addi	a4,a4,-362 # 8023a930 <mt>
    80001aa2:	1502                	slli	a0,a0,0x20
    80001aa4:	9101                	srli	a0,a0,0x20
    80001aa6:	e308                	sd	a0,0(a4)
    80001aa8:	0023a597          	auipc	a1,0x23a
    80001aac:	20058593          	addi	a1,a1,512 # 8023bca8 <mt+0x1378>
    80001ab0:	6645                	lui	a2,0x11
    80001ab2:	dcd60613          	addi	a2,a2,-563 # 10dcd <_entry-0x7ffef233>
    80001ab6:	56fd                	li	a3,-1
    80001ab8:	9281                	srli	a3,a3,0x20
    80001aba:	631c                	ld	a5,0(a4)
    80001abc:	02c787b3          	mul	a5,a5,a2
    80001ac0:	8ff5                	and	a5,a5,a3
    80001ac2:	e71c                	sd	a5,8(a4)
    80001ac4:	0721                	addi	a4,a4,8
    80001ac6:	feb71ae3          	bne	a4,a1,80001aba <sgenrand+0x26>
    80001aca:	27000793          	li	a5,624
    80001ace:	00008717          	auipc	a4,0x8
    80001ad2:	0af72d23          	sw	a5,186(a4) # 80009b88 <mti>
    80001ad6:	6422                	ld	s0,8(sp)
    80001ad8:	0141                	addi	sp,sp,16
    80001ada:	8082                	ret

0000000080001adc <genrand>:
    80001adc:	1141                	addi	sp,sp,-16
    80001ade:	e406                	sd	ra,8(sp)
    80001ae0:	e022                	sd	s0,0(sp)
    80001ae2:	0800                	addi	s0,sp,16
    80001ae4:	00008797          	auipc	a5,0x8
    80001ae8:	0a47a783          	lw	a5,164(a5) # 80009b88 <mti>
    80001aec:	26f00713          	li	a4,623
    80001af0:	0ef75963          	bge	a4,a5,80001be2 <genrand+0x106>
    80001af4:	27100713          	li	a4,625
    80001af8:	12e78f63          	beq	a5,a4,80001c36 <genrand+0x15a>
    80001afc:	00239817          	auipc	a6,0x239
    80001b00:	e3480813          	addi	a6,a6,-460 # 8023a930 <mt>
    80001b04:	00239e17          	auipc	t3,0x239
    80001b08:	544e0e13          	addi	t3,t3,1348 # 8023b048 <mt+0x718>
    80001b0c:	8742                	mv	a4,a6
    80001b0e:	4885                	li	a7,1
    80001b10:	08fe                	slli	a7,a7,0x1f
    80001b12:	80000537          	lui	a0,0x80000
    80001b16:	fff54513          	not	a0,a0
    80001b1a:	6585                	lui	a1,0x1
    80001b1c:	c6858593          	addi	a1,a1,-920 # c68 <_entry-0x7ffff398>
    80001b20:	00008317          	auipc	t1,0x8
    80001b24:	83030313          	addi	t1,t1,-2000 # 80009350 <mag01.1622>
    80001b28:	631c                	ld	a5,0(a4)
    80001b2a:	0117f7b3          	and	a5,a5,a7
    80001b2e:	6714                	ld	a3,8(a4)
    80001b30:	8ee9                	and	a3,a3,a0
    80001b32:	8fd5                	or	a5,a5,a3
    80001b34:	00b70633          	add	a2,a4,a1
    80001b38:	0017d693          	srli	a3,a5,0x1
    80001b3c:	6210                	ld	a2,0(a2)
    80001b3e:	8eb1                	xor	a3,a3,a2
    80001b40:	8b85                	andi	a5,a5,1
    80001b42:	078e                	slli	a5,a5,0x3
    80001b44:	979a                	add	a5,a5,t1
    80001b46:	639c                	ld	a5,0(a5)
    80001b48:	8fb5                	xor	a5,a5,a3
    80001b4a:	e31c                	sd	a5,0(a4)
    80001b4c:	0721                	addi	a4,a4,8
    80001b4e:	fdc71de3          	bne	a4,t3,80001b28 <genrand+0x4c>
    80001b52:	6605                	lui	a2,0x1
    80001b54:	c6060613          	addi	a2,a2,-928 # c60 <_entry-0x7ffff3a0>
    80001b58:	9642                	add	a2,a2,a6
    80001b5a:	4505                	li	a0,1
    80001b5c:	057e                	slli	a0,a0,0x1f
    80001b5e:	800005b7          	lui	a1,0x80000
    80001b62:	fff5c593          	not	a1,a1
    80001b66:	00007897          	auipc	a7,0x7
    80001b6a:	7ea88893          	addi	a7,a7,2026 # 80009350 <mag01.1622>
    80001b6e:	71883783          	ld	a5,1816(a6)
    80001b72:	8fe9                	and	a5,a5,a0
    80001b74:	72083703          	ld	a4,1824(a6)
    80001b78:	8f6d                	and	a4,a4,a1
    80001b7a:	8fd9                	or	a5,a5,a4
    80001b7c:	0017d713          	srli	a4,a5,0x1
    80001b80:	00083683          	ld	a3,0(a6)
    80001b84:	8f35                	xor	a4,a4,a3
    80001b86:	8b85                	andi	a5,a5,1
    80001b88:	078e                	slli	a5,a5,0x3
    80001b8a:	97c6                	add	a5,a5,a7
    80001b8c:	639c                	ld	a5,0(a5)
    80001b8e:	8fb9                	xor	a5,a5,a4
    80001b90:	70f83c23          	sd	a5,1816(a6)
    80001b94:	0821                	addi	a6,a6,8
    80001b96:	fcc81ce3          	bne	a6,a2,80001b6e <genrand+0x92>
    80001b9a:	0023a697          	auipc	a3,0x23a
    80001b9e:	d9668693          	addi	a3,a3,-618 # 8023b930 <mt+0x1000>
    80001ba2:	3786b783          	ld	a5,888(a3)
    80001ba6:	4705                	li	a4,1
    80001ba8:	077e                	slli	a4,a4,0x1f
    80001baa:	8ff9                	and	a5,a5,a4
    80001bac:	00239717          	auipc	a4,0x239
    80001bb0:	d8473703          	ld	a4,-636(a4) # 8023a930 <mt>
    80001bb4:	1706                	slli	a4,a4,0x21
    80001bb6:	9305                	srli	a4,a4,0x21
    80001bb8:	8fd9                	or	a5,a5,a4
    80001bba:	0017d713          	srli	a4,a5,0x1
    80001bbe:	c606b603          	ld	a2,-928(a3)
    80001bc2:	8f31                	xor	a4,a4,a2
    80001bc4:	8b85                	andi	a5,a5,1
    80001bc6:	078e                	slli	a5,a5,0x3
    80001bc8:	00007617          	auipc	a2,0x7
    80001bcc:	78860613          	addi	a2,a2,1928 # 80009350 <mag01.1622>
    80001bd0:	97b2                	add	a5,a5,a2
    80001bd2:	639c                	ld	a5,0(a5)
    80001bd4:	8fb9                	xor	a5,a5,a4
    80001bd6:	36f6bc23          	sd	a5,888(a3)
    80001bda:	00008797          	auipc	a5,0x8
    80001bde:	fa07a723          	sw	zero,-82(a5) # 80009b88 <mti>
    80001be2:	00008717          	auipc	a4,0x8
    80001be6:	fa670713          	addi	a4,a4,-90 # 80009b88 <mti>
    80001bea:	431c                	lw	a5,0(a4)
    80001bec:	0017869b          	addiw	a3,a5,1
    80001bf0:	c314                	sw	a3,0(a4)
    80001bf2:	078e                	slli	a5,a5,0x3
    80001bf4:	00239717          	auipc	a4,0x239
    80001bf8:	d3c70713          	addi	a4,a4,-708 # 8023a930 <mt>
    80001bfc:	97ba                	add	a5,a5,a4
    80001bfe:	6398                	ld	a4,0(a5)
    80001c00:	00b75793          	srli	a5,a4,0xb
    80001c04:	8f3d                	xor	a4,a4,a5
    80001c06:	013a67b7          	lui	a5,0x13a6
    80001c0a:	8ad78793          	addi	a5,a5,-1875 # 13a58ad <_entry-0x7ec5a753>
    80001c0e:	8ff9                	and	a5,a5,a4
    80001c10:	079e                	slli	a5,a5,0x7
    80001c12:	8fb9                	xor	a5,a5,a4
    80001c14:	00f79713          	slli	a4,a5,0xf
    80001c18:	077e36b7          	lui	a3,0x77e3
    80001c1c:	0696                	slli	a3,a3,0x5
    80001c1e:	8f75                	and	a4,a4,a3
    80001c20:	8fb9                	xor	a5,a5,a4
    80001c22:	0127d513          	srli	a0,a5,0x12
    80001c26:	8fa9                	xor	a5,a5,a0
    80001c28:	02179513          	slli	a0,a5,0x21
    80001c2c:	9105                	srli	a0,a0,0x21
    80001c2e:	60a2                	ld	ra,8(sp)
    80001c30:	6402                	ld	s0,0(sp)
    80001c32:	0141                	addi	sp,sp,16
    80001c34:	8082                	ret
    80001c36:	6505                	lui	a0,0x1
    80001c38:	10550513          	addi	a0,a0,261 # 1105 <_entry-0x7fffeefb>
    80001c3c:	00000097          	auipc	ra,0x0
    80001c40:	e58080e7          	jalr	-424(ra) # 80001a94 <sgenrand>
    80001c44:	bd65                	j	80001afc <genrand+0x20>

0000000080001c46 <random_at_most>:
    80001c46:	1101                	addi	sp,sp,-32
    80001c48:	ec06                	sd	ra,24(sp)
    80001c4a:	e822                	sd	s0,16(sp)
    80001c4c:	e426                	sd	s1,8(sp)
    80001c4e:	e04a                	sd	s2,0(sp)
    80001c50:	1000                	addi	s0,sp,32
    80001c52:	0505                	addi	a0,a0,1
    80001c54:	4485                	li	s1,1
    80001c56:	04fe                	slli	s1,s1,0x1f
    80001c58:	02a4d933          	divu	s2,s1,a0
    80001c5c:	02a4f533          	remu	a0,s1,a0
    80001c60:	4485                	li	s1,1
    80001c62:	04fe                	slli	s1,s1,0x1f
    80001c64:	8c89                	sub	s1,s1,a0
    80001c66:	00000097          	auipc	ra,0x0
    80001c6a:	e76080e7          	jalr	-394(ra) # 80001adc <genrand>
    80001c6e:	fe957ce3          	bgeu	a0,s1,80001c66 <random_at_most+0x20>
    80001c72:	03255533          	divu	a0,a0,s2
    80001c76:	60e2                	ld	ra,24(sp)
    80001c78:	6442                	ld	s0,16(sp)
    80001c7a:	64a2                	ld	s1,8(sp)
    80001c7c:	6902                	ld	s2,0(sp)
    80001c7e:	6105                	addi	sp,sp,32
    80001c80:	8082                	ret

0000000080001c82 <proc_mapstacks>:
    80001c82:	7139                	addi	sp,sp,-64
    80001c84:	fc06                	sd	ra,56(sp)
    80001c86:	f822                	sd	s0,48(sp)
    80001c88:	f426                	sd	s1,40(sp)
    80001c8a:	f04a                	sd	s2,32(sp)
    80001c8c:	ec4e                	sd	s3,24(sp)
    80001c8e:	e852                	sd	s4,16(sp)
    80001c90:	e456                	sd	s5,8(sp)
    80001c92:	e05a                	sd	s6,0(sp)
    80001c94:	0080                	addi	s0,sp,64
    80001c96:	89aa                	mv	s3,a0
    80001c98:	00231497          	auipc	s1,0x231
    80001c9c:	09848493          	addi	s1,s1,152 # 80232d30 <proc>
    80001ca0:	8b26                	mv	s6,s1
    80001ca2:	00007a97          	auipc	s5,0x7
    80001ca6:	35ea8a93          	addi	s5,s5,862 # 80009000 <etext>
    80001caa:	04000937          	lui	s2,0x4000
    80001cae:	197d                	addi	s2,s2,-1
    80001cb0:	0932                	slli	s2,s2,0xc
    80001cb2:	00239a17          	auipc	s4,0x239
    80001cb6:	c7ea0a13          	addi	s4,s4,-898 # 8023a930 <mt>
    80001cba:	fffff097          	auipc	ra,0xfffff
    80001cbe:	fdc080e7          	jalr	-36(ra) # 80000c96 <kalloc>
    80001cc2:	862a                	mv	a2,a0
    80001cc4:	c131                	beqz	a0,80001d08 <proc_mapstacks+0x86>
    80001cc6:	416485b3          	sub	a1,s1,s6
    80001cca:	8591                	srai	a1,a1,0x4
    80001ccc:	000ab783          	ld	a5,0(s5)
    80001cd0:	02f585b3          	mul	a1,a1,a5
    80001cd4:	2585                	addiw	a1,a1,1
    80001cd6:	00d5959b          	slliw	a1,a1,0xd
    80001cda:	4719                	li	a4,6
    80001cdc:	6685                	lui	a3,0x1
    80001cde:	40b905b3          	sub	a1,s2,a1
    80001ce2:	854e                	mv	a0,s3
    80001ce4:	fffff097          	auipc	ra,0xfffff
    80001ce8:	67a080e7          	jalr	1658(ra) # 8000135e <kvmmap>
    80001cec:	1f048493          	addi	s1,s1,496
    80001cf0:	fd4495e3          	bne	s1,s4,80001cba <proc_mapstacks+0x38>
    80001cf4:	70e2                	ld	ra,56(sp)
    80001cf6:	7442                	ld	s0,48(sp)
    80001cf8:	74a2                	ld	s1,40(sp)
    80001cfa:	7902                	ld	s2,32(sp)
    80001cfc:	69e2                	ld	s3,24(sp)
    80001cfe:	6a42                	ld	s4,16(sp)
    80001d00:	6aa2                	ld	s5,8(sp)
    80001d02:	6b02                	ld	s6,0(sp)
    80001d04:	6121                	addi	sp,sp,64
    80001d06:	8082                	ret
    80001d08:	00007517          	auipc	a0,0x7
    80001d0c:	53050513          	addi	a0,a0,1328 # 80009238 <digits+0x1f8>
    80001d10:	fffff097          	auipc	ra,0xfffff
    80001d14:	834080e7          	jalr	-1996(ra) # 80000544 <panic>

0000000080001d18 <procinit>:
    80001d18:	7139                	addi	sp,sp,-64
    80001d1a:	fc06                	sd	ra,56(sp)
    80001d1c:	f822                	sd	s0,48(sp)
    80001d1e:	f426                	sd	s1,40(sp)
    80001d20:	f04a                	sd	s2,32(sp)
    80001d22:	ec4e                	sd	s3,24(sp)
    80001d24:	e852                	sd	s4,16(sp)
    80001d26:	e456                	sd	s5,8(sp)
    80001d28:	e05a                	sd	s6,0(sp)
    80001d2a:	0080                	addi	s0,sp,64
    80001d2c:	00007597          	auipc	a1,0x7
    80001d30:	51458593          	addi	a1,a1,1300 # 80009240 <digits+0x200>
    80001d34:	00230517          	auipc	a0,0x230
    80001d38:	15450513          	addi	a0,a0,340 # 80231e88 <pid_lock>
    80001d3c:	fffff097          	auipc	ra,0xfffff
    80001d40:	022080e7          	jalr	34(ra) # 80000d5e <initlock>
    80001d44:	00007597          	auipc	a1,0x7
    80001d48:	50458593          	addi	a1,a1,1284 # 80009248 <digits+0x208>
    80001d4c:	00230517          	auipc	a0,0x230
    80001d50:	15450513          	addi	a0,a0,340 # 80231ea0 <wait_lock>
    80001d54:	fffff097          	auipc	ra,0xfffff
    80001d58:	00a080e7          	jalr	10(ra) # 80000d5e <initlock>
    80001d5c:	00231497          	auipc	s1,0x231
    80001d60:	fd448493          	addi	s1,s1,-44 # 80232d30 <proc>
    80001d64:	00007b17          	auipc	s6,0x7
    80001d68:	4f4b0b13          	addi	s6,s6,1268 # 80009258 <digits+0x218>
    80001d6c:	8aa6                	mv	s5,s1
    80001d6e:	00007a17          	auipc	s4,0x7
    80001d72:	292a0a13          	addi	s4,s4,658 # 80009000 <etext>
    80001d76:	04000937          	lui	s2,0x4000
    80001d7a:	197d                	addi	s2,s2,-1
    80001d7c:	0932                	slli	s2,s2,0xc
    80001d7e:	00239997          	auipc	s3,0x239
    80001d82:	bb298993          	addi	s3,s3,-1102 # 8023a930 <mt>
    80001d86:	85da                	mv	a1,s6
    80001d88:	8526                	mv	a0,s1
    80001d8a:	fffff097          	auipc	ra,0xfffff
    80001d8e:	fd4080e7          	jalr	-44(ra) # 80000d5e <initlock>
    80001d92:	415487b3          	sub	a5,s1,s5
    80001d96:	8791                	srai	a5,a5,0x4
    80001d98:	000a3703          	ld	a4,0(s4)
    80001d9c:	02e787b3          	mul	a5,a5,a4
    80001da0:	2785                	addiw	a5,a5,1
    80001da2:	00d7979b          	slliw	a5,a5,0xd
    80001da6:	40f907b3          	sub	a5,s2,a5
    80001daa:	e0bc                	sd	a5,64(s1)
    80001dac:	1f048493          	addi	s1,s1,496
    80001db0:	fd349be3          	bne	s1,s3,80001d86 <procinit+0x6e>
    80001db4:	00230797          	auipc	a5,0x230
    80001db8:	50478793          	addi	a5,a5,1284 # 802322b8 <mlfq>
    80001dbc:	00231717          	auipc	a4,0x231
    80001dc0:	f7470713          	addi	a4,a4,-140 # 80232d30 <proc>
    80001dc4:	0007a023          	sw	zero,0(a5)
    80001dc8:	2007a823          	sw	zero,528(a5)
    80001dcc:	0007a223          	sw	zero,4(a5)
    80001dd0:	21878793          	addi	a5,a5,536
    80001dd4:	fee798e3          	bne	a5,a4,80001dc4 <procinit+0xac>
    80001dd8:	70e2                	ld	ra,56(sp)
    80001dda:	7442                	ld	s0,48(sp)
    80001ddc:	74a2                	ld	s1,40(sp)
    80001dde:	7902                	ld	s2,32(sp)
    80001de0:	69e2                	ld	s3,24(sp)
    80001de2:	6a42                	ld	s4,16(sp)
    80001de4:	6aa2                	ld	s5,8(sp)
    80001de6:	6b02                	ld	s6,0(sp)
    80001de8:	6121                	addi	sp,sp,64
    80001dea:	8082                	ret

0000000080001dec <cpuid>:
    80001dec:	1141                	addi	sp,sp,-16
    80001dee:	e422                	sd	s0,8(sp)
    80001df0:	0800                	addi	s0,sp,16
    80001df2:	8512                	mv	a0,tp
    80001df4:	2501                	sext.w	a0,a0
    80001df6:	6422                	ld	s0,8(sp)
    80001df8:	0141                	addi	sp,sp,16
    80001dfa:	8082                	ret

0000000080001dfc <mycpu>:
    80001dfc:	1141                	addi	sp,sp,-16
    80001dfe:	e422                	sd	s0,8(sp)
    80001e00:	0800                	addi	s0,sp,16
    80001e02:	8792                	mv	a5,tp
    80001e04:	2781                	sext.w	a5,a5
    80001e06:	079e                	slli	a5,a5,0x7
    80001e08:	00230517          	auipc	a0,0x230
    80001e0c:	0b050513          	addi	a0,a0,176 # 80231eb8 <cpus>
    80001e10:	953e                	add	a0,a0,a5
    80001e12:	6422                	ld	s0,8(sp)
    80001e14:	0141                	addi	sp,sp,16
    80001e16:	8082                	ret

0000000080001e18 <myproc>:
    80001e18:	1101                	addi	sp,sp,-32
    80001e1a:	ec06                	sd	ra,24(sp)
    80001e1c:	e822                	sd	s0,16(sp)
    80001e1e:	e426                	sd	s1,8(sp)
    80001e20:	1000                	addi	s0,sp,32
    80001e22:	fffff097          	auipc	ra,0xfffff
    80001e26:	f80080e7          	jalr	-128(ra) # 80000da2 <push_off>
    80001e2a:	8792                	mv	a5,tp
    80001e2c:	2781                	sext.w	a5,a5
    80001e2e:	079e                	slli	a5,a5,0x7
    80001e30:	00230717          	auipc	a4,0x230
    80001e34:	05870713          	addi	a4,a4,88 # 80231e88 <pid_lock>
    80001e38:	97ba                	add	a5,a5,a4
    80001e3a:	7b84                	ld	s1,48(a5)
    80001e3c:	fffff097          	auipc	ra,0xfffff
    80001e40:	006080e7          	jalr	6(ra) # 80000e42 <pop_off>
    80001e44:	8526                	mv	a0,s1
    80001e46:	60e2                	ld	ra,24(sp)
    80001e48:	6442                	ld	s0,16(sp)
    80001e4a:	64a2                	ld	s1,8(sp)
    80001e4c:	6105                	addi	sp,sp,32
    80001e4e:	8082                	ret

0000000080001e50 <forkret>:
    80001e50:	1141                	addi	sp,sp,-16
    80001e52:	e406                	sd	ra,8(sp)
    80001e54:	e022                	sd	s0,0(sp)
    80001e56:	0800                	addi	s0,sp,16
    80001e58:	00000097          	auipc	ra,0x0
    80001e5c:	fc0080e7          	jalr	-64(ra) # 80001e18 <myproc>
    80001e60:	fffff097          	auipc	ra,0xfffff
    80001e64:	042080e7          	jalr	66(ra) # 80000ea2 <release>
    80001e68:	00008797          	auipc	a5,0x8
    80001e6c:	d187a783          	lw	a5,-744(a5) # 80009b80 <first.1806>
    80001e70:	eb89                	bnez	a5,80001e82 <forkret+0x32>
    80001e72:	00001097          	auipc	ra,0x1
    80001e76:	212080e7          	jalr	530(ra) # 80003084 <usertrapret>
    80001e7a:	60a2                	ld	ra,8(sp)
    80001e7c:	6402                	ld	s0,0(sp)
    80001e7e:	0141                	addi	sp,sp,16
    80001e80:	8082                	ret
    80001e82:	00008797          	auipc	a5,0x8
    80001e86:	ce07af23          	sw	zero,-770(a5) # 80009b80 <first.1806>
    80001e8a:	4505                	li	a0,1
    80001e8c:	00002097          	auipc	ra,0x2
    80001e90:	464080e7          	jalr	1124(ra) # 800042f0 <fsinit>
    80001e94:	bff9                	j	80001e72 <forkret+0x22>

0000000080001e96 <allocpid>:
    80001e96:	1101                	addi	sp,sp,-32
    80001e98:	ec06                	sd	ra,24(sp)
    80001e9a:	e822                	sd	s0,16(sp)
    80001e9c:	e426                	sd	s1,8(sp)
    80001e9e:	e04a                	sd	s2,0(sp)
    80001ea0:	1000                	addi	s0,sp,32
    80001ea2:	00230917          	auipc	s2,0x230
    80001ea6:	fe690913          	addi	s2,s2,-26 # 80231e88 <pid_lock>
    80001eaa:	854a                	mv	a0,s2
    80001eac:	fffff097          	auipc	ra,0xfffff
    80001eb0:	f42080e7          	jalr	-190(ra) # 80000dee <acquire>
    80001eb4:	00008797          	auipc	a5,0x8
    80001eb8:	cd078793          	addi	a5,a5,-816 # 80009b84 <nextpid>
    80001ebc:	4384                	lw	s1,0(a5)
    80001ebe:	0014871b          	addiw	a4,s1,1
    80001ec2:	c398                	sw	a4,0(a5)
    80001ec4:	854a                	mv	a0,s2
    80001ec6:	fffff097          	auipc	ra,0xfffff
    80001eca:	fdc080e7          	jalr	-36(ra) # 80000ea2 <release>
    80001ece:	8526                	mv	a0,s1
    80001ed0:	60e2                	ld	ra,24(sp)
    80001ed2:	6442                	ld	s0,16(sp)
    80001ed4:	64a2                	ld	s1,8(sp)
    80001ed6:	6902                	ld	s2,0(sp)
    80001ed8:	6105                	addi	sp,sp,32
    80001eda:	8082                	ret

0000000080001edc <proc_pagetable>:
    80001edc:	1101                	addi	sp,sp,-32
    80001ede:	ec06                	sd	ra,24(sp)
    80001ee0:	e822                	sd	s0,16(sp)
    80001ee2:	e426                	sd	s1,8(sp)
    80001ee4:	e04a                	sd	s2,0(sp)
    80001ee6:	1000                	addi	s0,sp,32
    80001ee8:	892a                	mv	s2,a0
    80001eea:	fffff097          	auipc	ra,0xfffff
    80001eee:	65e080e7          	jalr	1630(ra) # 80001548 <uvmcreate>
    80001ef2:	84aa                	mv	s1,a0
    80001ef4:	c121                	beqz	a0,80001f34 <proc_pagetable+0x58>
    80001ef6:	4729                	li	a4,10
    80001ef8:	00006697          	auipc	a3,0x6
    80001efc:	10868693          	addi	a3,a3,264 # 80008000 <_trampoline>
    80001f00:	6605                	lui	a2,0x1
    80001f02:	040005b7          	lui	a1,0x4000
    80001f06:	15fd                	addi	a1,a1,-1
    80001f08:	05b2                	slli	a1,a1,0xc
    80001f0a:	fffff097          	auipc	ra,0xfffff
    80001f0e:	3b4080e7          	jalr	948(ra) # 800012be <mappages>
    80001f12:	02054863          	bltz	a0,80001f42 <proc_pagetable+0x66>
    80001f16:	4719                	li	a4,6
    80001f18:	05893683          	ld	a3,88(s2)
    80001f1c:	6605                	lui	a2,0x1
    80001f1e:	020005b7          	lui	a1,0x2000
    80001f22:	15fd                	addi	a1,a1,-1
    80001f24:	05b6                	slli	a1,a1,0xd
    80001f26:	8526                	mv	a0,s1
    80001f28:	fffff097          	auipc	ra,0xfffff
    80001f2c:	396080e7          	jalr	918(ra) # 800012be <mappages>
    80001f30:	02054163          	bltz	a0,80001f52 <proc_pagetable+0x76>
    80001f34:	8526                	mv	a0,s1
    80001f36:	60e2                	ld	ra,24(sp)
    80001f38:	6442                	ld	s0,16(sp)
    80001f3a:	64a2                	ld	s1,8(sp)
    80001f3c:	6902                	ld	s2,0(sp)
    80001f3e:	6105                	addi	sp,sp,32
    80001f40:	8082                	ret
    80001f42:	4581                	li	a1,0
    80001f44:	8526                	mv	a0,s1
    80001f46:	00000097          	auipc	ra,0x0
    80001f4a:	806080e7          	jalr	-2042(ra) # 8000174c <uvmfree>
    80001f4e:	4481                	li	s1,0
    80001f50:	b7d5                	j	80001f34 <proc_pagetable+0x58>
    80001f52:	4681                	li	a3,0
    80001f54:	4605                	li	a2,1
    80001f56:	040005b7          	lui	a1,0x4000
    80001f5a:	15fd                	addi	a1,a1,-1
    80001f5c:	05b2                	slli	a1,a1,0xc
    80001f5e:	8526                	mv	a0,s1
    80001f60:	fffff097          	auipc	ra,0xfffff
    80001f64:	524080e7          	jalr	1316(ra) # 80001484 <uvmunmap>
    80001f68:	4581                	li	a1,0
    80001f6a:	8526                	mv	a0,s1
    80001f6c:	fffff097          	auipc	ra,0xfffff
    80001f70:	7e0080e7          	jalr	2016(ra) # 8000174c <uvmfree>
    80001f74:	4481                	li	s1,0
    80001f76:	bf7d                	j	80001f34 <proc_pagetable+0x58>

0000000080001f78 <proc_freepagetable>:
    80001f78:	1101                	addi	sp,sp,-32
    80001f7a:	ec06                	sd	ra,24(sp)
    80001f7c:	e822                	sd	s0,16(sp)
    80001f7e:	e426                	sd	s1,8(sp)
    80001f80:	e04a                	sd	s2,0(sp)
    80001f82:	1000                	addi	s0,sp,32
    80001f84:	84aa                	mv	s1,a0
    80001f86:	892e                	mv	s2,a1
    80001f88:	4681                	li	a3,0
    80001f8a:	4605                	li	a2,1
    80001f8c:	040005b7          	lui	a1,0x4000
    80001f90:	15fd                	addi	a1,a1,-1
    80001f92:	05b2                	slli	a1,a1,0xc
    80001f94:	fffff097          	auipc	ra,0xfffff
    80001f98:	4f0080e7          	jalr	1264(ra) # 80001484 <uvmunmap>
    80001f9c:	4681                	li	a3,0
    80001f9e:	4605                	li	a2,1
    80001fa0:	020005b7          	lui	a1,0x2000
    80001fa4:	15fd                	addi	a1,a1,-1
    80001fa6:	05b6                	slli	a1,a1,0xd
    80001fa8:	8526                	mv	a0,s1
    80001faa:	fffff097          	auipc	ra,0xfffff
    80001fae:	4da080e7          	jalr	1242(ra) # 80001484 <uvmunmap>
    80001fb2:	85ca                	mv	a1,s2
    80001fb4:	8526                	mv	a0,s1
    80001fb6:	fffff097          	auipc	ra,0xfffff
    80001fba:	796080e7          	jalr	1942(ra) # 8000174c <uvmfree>
    80001fbe:	60e2                	ld	ra,24(sp)
    80001fc0:	6442                	ld	s0,16(sp)
    80001fc2:	64a2                	ld	s1,8(sp)
    80001fc4:	6902                	ld	s2,0(sp)
    80001fc6:	6105                	addi	sp,sp,32
    80001fc8:	8082                	ret

0000000080001fca <freeproc>:
    80001fca:	1101                	addi	sp,sp,-32
    80001fcc:	ec06                	sd	ra,24(sp)
    80001fce:	e822                	sd	s0,16(sp)
    80001fd0:	e426                	sd	s1,8(sp)
    80001fd2:	1000                	addi	s0,sp,32
    80001fd4:	84aa                	mv	s1,a0
    80001fd6:	6d28                	ld	a0,88(a0)
    80001fd8:	c509                	beqz	a0,80001fe2 <freeproc+0x18>
    80001fda:	fffff097          	auipc	ra,0xfffff
    80001fde:	a86080e7          	jalr	-1402(ra) # 80000a60 <kfree>
    80001fe2:	0404bc23          	sd	zero,88(s1)
    80001fe6:	68a8                	ld	a0,80(s1)
    80001fe8:	c511                	beqz	a0,80001ff4 <freeproc+0x2a>
    80001fea:	64ac                	ld	a1,72(s1)
    80001fec:	00000097          	auipc	ra,0x0
    80001ff0:	f8c080e7          	jalr	-116(ra) # 80001f78 <proc_freepagetable>
    80001ff4:	0404b823          	sd	zero,80(s1)
    80001ff8:	0404b423          	sd	zero,72(s1)
    80001ffc:	0204a823          	sw	zero,48(s1)
    80002000:	0204bc23          	sd	zero,56(s1)
    80002004:	14048c23          	sb	zero,344(s1)
    80002008:	0204b023          	sd	zero,32(s1)
    8000200c:	0204a423          	sw	zero,40(s1)
    80002010:	0204a623          	sw	zero,44(s1)
    80002014:	0004ac23          	sw	zero,24(s1)
    80002018:	1a04ae23          	sw	zero,444(s1)
    8000201c:	60e2                	ld	ra,24(sp)
    8000201e:	6442                	ld	s0,16(sp)
    80002020:	64a2                	ld	s1,8(sp)
    80002022:	6105                	addi	sp,sp,32
    80002024:	8082                	ret

0000000080002026 <allocproc>:
    80002026:	7179                	addi	sp,sp,-48
    80002028:	f406                	sd	ra,40(sp)
    8000202a:	f022                	sd	s0,32(sp)
    8000202c:	ec26                	sd	s1,24(sp)
    8000202e:	e84a                	sd	s2,16(sp)
    80002030:	e44e                	sd	s3,8(sp)
    80002032:	1800                	addi	s0,sp,48
    80002034:	00231497          	auipc	s1,0x231
    80002038:	cfc48493          	addi	s1,s1,-772 # 80232d30 <proc>
    8000203c:	00239917          	auipc	s2,0x239
    80002040:	8f490913          	addi	s2,s2,-1804 # 8023a930 <mt>
    80002044:	8526                	mv	a0,s1
    80002046:	fffff097          	auipc	ra,0xfffff
    8000204a:	da8080e7          	jalr	-600(ra) # 80000dee <acquire>
    8000204e:	4c9c                	lw	a5,24(s1)
    80002050:	cf81                	beqz	a5,80002068 <allocproc+0x42>
    80002052:	8526                	mv	a0,s1
    80002054:	fffff097          	auipc	ra,0xfffff
    80002058:	e4e080e7          	jalr	-434(ra) # 80000ea2 <release>
    8000205c:	1f048493          	addi	s1,s1,496
    80002060:	ff2492e3          	bne	s1,s2,80002044 <allocproc+0x1e>
    80002064:	4481                	li	s1,0
    80002066:	a865                	j	8000211e <allocproc+0xf8>
    80002068:	00000097          	auipc	ra,0x0
    8000206c:	e2e080e7          	jalr	-466(ra) # 80001e96 <allocpid>
    80002070:	d888                	sw	a0,48(s1)
    80002072:	4785                	li	a5,1
    80002074:	cc9c                	sw	a5,24(s1)
    80002076:	fffff097          	auipc	ra,0xfffff
    8000207a:	c20080e7          	jalr	-992(ra) # 80000c96 <kalloc>
    8000207e:	892a                	mv	s2,a0
    80002080:	eca8                	sd	a0,88(s1)
    80002082:	c555                	beqz	a0,8000212e <allocproc+0x108>
    80002084:	8526                	mv	a0,s1
    80002086:	00000097          	auipc	ra,0x0
    8000208a:	e56080e7          	jalr	-426(ra) # 80001edc <proc_pagetable>
    8000208e:	892a                	mv	s2,a0
    80002090:	e8a8                	sd	a0,80(s1)
    80002092:	c955                	beqz	a0,80002146 <allocproc+0x120>
    80002094:	00008917          	auipc	s2,0x8
    80002098:	b7090913          	addi	s2,s2,-1168 # 80009c04 <ticks>
    8000209c:	00092783          	lw	a5,0(s2)
    800020a0:	18f4a823          	sw	a5,400(s1)
    800020a4:	1804ac23          	sw	zero,408(s1)
    800020a8:	1a04a623          	sw	zero,428(s1)
    800020ac:	1804aa23          	sw	zero,404(s1)
    800020b0:	03c00793          	li	a5,60
    800020b4:	1af4a223          	sw	a5,420(s1)
    800020b8:	1804a623          	sw	zero,396(s1)
    800020bc:	1a04a423          	sw	zero,424(s1)
    800020c0:	1604a423          	sw	zero,360(s1)
    800020c4:	4985                	li	s3,1
    800020c6:	1b34ae23          	sw	s3,444(s1)
    800020ca:	1c04a023          	sw	zero,448(s1)
    800020ce:	07000613          	li	a2,112
    800020d2:	4581                	li	a1,0
    800020d4:	06048513          	addi	a0,s1,96
    800020d8:	fffff097          	auipc	ra,0xfffff
    800020dc:	e12080e7          	jalr	-494(ra) # 80000eea <memset>
    800020e0:	00000797          	auipc	a5,0x0
    800020e4:	d7078793          	addi	a5,a5,-656 # 80001e50 <forkret>
    800020e8:	f0bc                	sd	a5,96(s1)
    800020ea:	60bc                	ld	a5,64(s1)
    800020ec:	6705                	lui	a4,0x1
    800020ee:	97ba                	add	a5,a5,a4
    800020f0:	f4bc                	sd	a5,104(s1)
    800020f2:	1c04a223          	sw	zero,452(s1)
    800020f6:	1c04a423          	sw	zero,456(s1)
    800020fa:	1d34a623          	sw	s3,460(s1)
    800020fe:	1c04a823          	sw	zero,464(s1)
    80002102:	00092783          	lw	a5,0(s2)
    80002106:	1cf4aa23          	sw	a5,468(s1)
    8000210a:	1c04ac23          	sw	zero,472(s1)
    8000210e:	1c04ae23          	sw	zero,476(s1)
    80002112:	1e04a023          	sw	zero,480(s1)
    80002116:	1e04a223          	sw	zero,484(s1)
    8000211a:	1e04a423          	sw	zero,488(s1)
    8000211e:	8526                	mv	a0,s1
    80002120:	70a2                	ld	ra,40(sp)
    80002122:	7402                	ld	s0,32(sp)
    80002124:	64e2                	ld	s1,24(sp)
    80002126:	6942                	ld	s2,16(sp)
    80002128:	69a2                	ld	s3,8(sp)
    8000212a:	6145                	addi	sp,sp,48
    8000212c:	8082                	ret
    8000212e:	8526                	mv	a0,s1
    80002130:	00000097          	auipc	ra,0x0
    80002134:	e9a080e7          	jalr	-358(ra) # 80001fca <freeproc>
    80002138:	8526                	mv	a0,s1
    8000213a:	fffff097          	auipc	ra,0xfffff
    8000213e:	d68080e7          	jalr	-664(ra) # 80000ea2 <release>
    80002142:	84ca                	mv	s1,s2
    80002144:	bfe9                	j	8000211e <allocproc+0xf8>
    80002146:	8526                	mv	a0,s1
    80002148:	00000097          	auipc	ra,0x0
    8000214c:	e82080e7          	jalr	-382(ra) # 80001fca <freeproc>
    80002150:	8526                	mv	a0,s1
    80002152:	fffff097          	auipc	ra,0xfffff
    80002156:	d50080e7          	jalr	-688(ra) # 80000ea2 <release>
    8000215a:	84ca                	mv	s1,s2
    8000215c:	b7c9                	j	8000211e <allocproc+0xf8>

000000008000215e <userinit>:
    8000215e:	1101                	addi	sp,sp,-32
    80002160:	ec06                	sd	ra,24(sp)
    80002162:	e822                	sd	s0,16(sp)
    80002164:	e426                	sd	s1,8(sp)
    80002166:	1000                	addi	s0,sp,32
    80002168:	00000097          	auipc	ra,0x0
    8000216c:	ebe080e7          	jalr	-322(ra) # 80002026 <allocproc>
    80002170:	84aa                	mv	s1,a0
    80002172:	00008797          	auipc	a5,0x8
    80002176:	a8a7b323          	sd	a0,-1402(a5) # 80009bf8 <initproc>
    8000217a:	03400613          	li	a2,52
    8000217e:	00008597          	auipc	a1,0x8
    80002182:	a1258593          	addi	a1,a1,-1518 # 80009b90 <initcode>
    80002186:	6928                	ld	a0,80(a0)
    80002188:	fffff097          	auipc	ra,0xfffff
    8000218c:	3ee080e7          	jalr	1006(ra) # 80001576 <uvmfirst>
    80002190:	6785                	lui	a5,0x1
    80002192:	e4bc                	sd	a5,72(s1)
    80002194:	6cb8                	ld	a4,88(s1)
    80002196:	00073c23          	sd	zero,24(a4) # 1018 <_entry-0x7fffefe8>
    8000219a:	6cb8                	ld	a4,88(s1)
    8000219c:	fb1c                	sd	a5,48(a4)
    8000219e:	4641                	li	a2,16
    800021a0:	00007597          	auipc	a1,0x7
    800021a4:	0c058593          	addi	a1,a1,192 # 80009260 <digits+0x220>
    800021a8:	15848513          	addi	a0,s1,344
    800021ac:	fffff097          	auipc	ra,0xfffff
    800021b0:	e90080e7          	jalr	-368(ra) # 8000103c <safestrcpy>
    800021b4:	00007517          	auipc	a0,0x7
    800021b8:	0bc50513          	addi	a0,a0,188 # 80009270 <digits+0x230>
    800021bc:	00003097          	auipc	ra,0x3
    800021c0:	b56080e7          	jalr	-1194(ra) # 80004d12 <namei>
    800021c4:	14a4b823          	sd	a0,336(s1)
    800021c8:	478d                	li	a5,3
    800021ca:	cc9c                	sw	a5,24(s1)
    800021cc:	8526                	mv	a0,s1
    800021ce:	fffff097          	auipc	ra,0xfffff
    800021d2:	cd4080e7          	jalr	-812(ra) # 80000ea2 <release>
    800021d6:	60e2                	ld	ra,24(sp)
    800021d8:	6442                	ld	s0,16(sp)
    800021da:	64a2                	ld	s1,8(sp)
    800021dc:	6105                	addi	sp,sp,32
    800021de:	8082                	ret

00000000800021e0 <growproc>:
    800021e0:	1101                	addi	sp,sp,-32
    800021e2:	ec06                	sd	ra,24(sp)
    800021e4:	e822                	sd	s0,16(sp)
    800021e6:	e426                	sd	s1,8(sp)
    800021e8:	e04a                	sd	s2,0(sp)
    800021ea:	1000                	addi	s0,sp,32
    800021ec:	892a                	mv	s2,a0
    800021ee:	00000097          	auipc	ra,0x0
    800021f2:	c2a080e7          	jalr	-982(ra) # 80001e18 <myproc>
    800021f6:	84aa                	mv	s1,a0
    800021f8:	652c                	ld	a1,72(a0)
    800021fa:	01204c63          	bgtz	s2,80002212 <growproc+0x32>
    800021fe:	02094663          	bltz	s2,8000222a <growproc+0x4a>
    80002202:	e4ac                	sd	a1,72(s1)
    80002204:	4501                	li	a0,0
    80002206:	60e2                	ld	ra,24(sp)
    80002208:	6442                	ld	s0,16(sp)
    8000220a:	64a2                	ld	s1,8(sp)
    8000220c:	6902                	ld	s2,0(sp)
    8000220e:	6105                	addi	sp,sp,32
    80002210:	8082                	ret
    80002212:	4691                	li	a3,4
    80002214:	00b90633          	add	a2,s2,a1
    80002218:	6928                	ld	a0,80(a0)
    8000221a:	fffff097          	auipc	ra,0xfffff
    8000221e:	416080e7          	jalr	1046(ra) # 80001630 <uvmalloc>
    80002222:	85aa                	mv	a1,a0
    80002224:	fd79                	bnez	a0,80002202 <growproc+0x22>
    80002226:	557d                	li	a0,-1
    80002228:	bff9                	j	80002206 <growproc+0x26>
    8000222a:	00b90633          	add	a2,s2,a1
    8000222e:	6928                	ld	a0,80(a0)
    80002230:	fffff097          	auipc	ra,0xfffff
    80002234:	3b8080e7          	jalr	952(ra) # 800015e8 <uvmdealloc>
    80002238:	85aa                	mv	a1,a0
    8000223a:	b7e1                	j	80002202 <growproc+0x22>

000000008000223c <fork>:
    8000223c:	7179                	addi	sp,sp,-48
    8000223e:	f406                	sd	ra,40(sp)
    80002240:	f022                	sd	s0,32(sp)
    80002242:	ec26                	sd	s1,24(sp)
    80002244:	e84a                	sd	s2,16(sp)
    80002246:	e44e                	sd	s3,8(sp)
    80002248:	e052                	sd	s4,0(sp)
    8000224a:	1800                	addi	s0,sp,48
    8000224c:	00000097          	auipc	ra,0x0
    80002250:	bcc080e7          	jalr	-1076(ra) # 80001e18 <myproc>
    80002254:	892a                	mv	s2,a0
    80002256:	00000097          	auipc	ra,0x0
    8000225a:	dd0080e7          	jalr	-560(ra) # 80002026 <allocproc>
    8000225e:	12050c63          	beqz	a0,80002396 <fork+0x15a>
    80002262:	89aa                	mv	s3,a0
    80002264:	19c92783          	lw	a5,412(s2)
    80002268:	18f52e23          	sw	a5,412(a0)
    8000226c:	04893603          	ld	a2,72(s2)
    80002270:	692c                	ld	a1,80(a0)
    80002272:	05093503          	ld	a0,80(s2)
    80002276:	fffff097          	auipc	ra,0xfffff
    8000227a:	50e080e7          	jalr	1294(ra) # 80001784 <uvmcopy>
    8000227e:	04054663          	bltz	a0,800022ca <fork+0x8e>
    80002282:	04893783          	ld	a5,72(s2)
    80002286:	04f9b423          	sd	a5,72(s3)
    8000228a:	05893683          	ld	a3,88(s2)
    8000228e:	87b6                	mv	a5,a3
    80002290:	0589b703          	ld	a4,88(s3)
    80002294:	12068693          	addi	a3,a3,288
    80002298:	0007b803          	ld	a6,0(a5) # 1000 <_entry-0x7ffff000>
    8000229c:	6788                	ld	a0,8(a5)
    8000229e:	6b8c                	ld	a1,16(a5)
    800022a0:	6f90                	ld	a2,24(a5)
    800022a2:	01073023          	sd	a6,0(a4)
    800022a6:	e708                	sd	a0,8(a4)
    800022a8:	eb0c                	sd	a1,16(a4)
    800022aa:	ef10                	sd	a2,24(a4)
    800022ac:	02078793          	addi	a5,a5,32
    800022b0:	02070713          	addi	a4,a4,32
    800022b4:	fed792e3          	bne	a5,a3,80002298 <fork+0x5c>
    800022b8:	0589b783          	ld	a5,88(s3)
    800022bc:	0607b823          	sd	zero,112(a5)
    800022c0:	0d000493          	li	s1,208
    800022c4:	15000a13          	li	s4,336
    800022c8:	a03d                	j	800022f6 <fork+0xba>
    800022ca:	854e                	mv	a0,s3
    800022cc:	00000097          	auipc	ra,0x0
    800022d0:	cfe080e7          	jalr	-770(ra) # 80001fca <freeproc>
    800022d4:	854e                	mv	a0,s3
    800022d6:	fffff097          	auipc	ra,0xfffff
    800022da:	bcc080e7          	jalr	-1076(ra) # 80000ea2 <release>
    800022de:	5a7d                	li	s4,-1
    800022e0:	a055                	j	80002384 <fork+0x148>
    800022e2:	00003097          	auipc	ra,0x3
    800022e6:	0c6080e7          	jalr	198(ra) # 800053a8 <filedup>
    800022ea:	009987b3          	add	a5,s3,s1
    800022ee:	e388                	sd	a0,0(a5)
    800022f0:	04a1                	addi	s1,s1,8
    800022f2:	01448763          	beq	s1,s4,80002300 <fork+0xc4>
    800022f6:	009907b3          	add	a5,s2,s1
    800022fa:	6388                	ld	a0,0(a5)
    800022fc:	f17d                	bnez	a0,800022e2 <fork+0xa6>
    800022fe:	bfcd                	j	800022f0 <fork+0xb4>
    80002300:	15093503          	ld	a0,336(s2)
    80002304:	00002097          	auipc	ra,0x2
    80002308:	22a080e7          	jalr	554(ra) # 8000452e <idup>
    8000230c:	14a9b823          	sd	a0,336(s3)
    80002310:	4641                	li	a2,16
    80002312:	15890593          	addi	a1,s2,344
    80002316:	15898513          	addi	a0,s3,344
    8000231a:	fffff097          	auipc	ra,0xfffff
    8000231e:	d22080e7          	jalr	-734(ra) # 8000103c <safestrcpy>
    80002322:	0309aa03          	lw	s4,48(s3)
    80002326:	854e                	mv	a0,s3
    80002328:	fffff097          	auipc	ra,0xfffff
    8000232c:	b7a080e7          	jalr	-1158(ra) # 80000ea2 <release>
    80002330:	00230497          	auipc	s1,0x230
    80002334:	b7048493          	addi	s1,s1,-1168 # 80231ea0 <wait_lock>
    80002338:	8526                	mv	a0,s1
    8000233a:	fffff097          	auipc	ra,0xfffff
    8000233e:	ab4080e7          	jalr	-1356(ra) # 80000dee <acquire>
    80002342:	0329bc23          	sd	s2,56(s3)
    80002346:	1c092783          	lw	a5,448(s2)
    8000234a:	1cf9a023          	sw	a5,448(s3)
    8000234e:	00008717          	auipc	a4,0x8
    80002352:	8b270713          	addi	a4,a4,-1870 # 80009c00 <totaltickets>
    80002356:	1bc9a783          	lw	a5,444(s3)
    8000235a:	4314                	lw	a3,0(a4)
    8000235c:	9fb5                	addw	a5,a5,a3
    8000235e:	c31c                	sw	a5,0(a4)
    80002360:	8526                	mv	a0,s1
    80002362:	fffff097          	auipc	ra,0xfffff
    80002366:	b40080e7          	jalr	-1216(ra) # 80000ea2 <release>
    8000236a:	854e                	mv	a0,s3
    8000236c:	fffff097          	auipc	ra,0xfffff
    80002370:	a82080e7          	jalr	-1406(ra) # 80000dee <acquire>
    80002374:	478d                	li	a5,3
    80002376:	00f9ac23          	sw	a5,24(s3)
    8000237a:	854e                	mv	a0,s3
    8000237c:	fffff097          	auipc	ra,0xfffff
    80002380:	b26080e7          	jalr	-1242(ra) # 80000ea2 <release>
    80002384:	8552                	mv	a0,s4
    80002386:	70a2                	ld	ra,40(sp)
    80002388:	7402                	ld	s0,32(sp)
    8000238a:	64e2                	ld	s1,24(sp)
    8000238c:	6942                	ld	s2,16(sp)
    8000238e:	69a2                	ld	s3,8(sp)
    80002390:	6a02                	ld	s4,0(sp)
    80002392:	6145                	addi	sp,sp,48
    80002394:	8082                	ret
    80002396:	5a7d                	li	s4,-1
    80002398:	b7f5                	j	80002384 <fork+0x148>

000000008000239a <set_proc_tckts>:
    8000239a:	1101                	addi	sp,sp,-32
    8000239c:	ec06                	sd	ra,24(sp)
    8000239e:	e822                	sd	s0,16(sp)
    800023a0:	e426                	sd	s1,8(sp)
    800023a2:	1000                	addi	s0,sp,32
    800023a4:	84aa                	mv	s1,a0
    800023a6:	00231517          	auipc	a0,0x231
    800023aa:	98a50513          	addi	a0,a0,-1654 # 80232d30 <proc>
    800023ae:	fffff097          	auipc	ra,0xfffff
    800023b2:	a40080e7          	jalr	-1472(ra) # 80000dee <acquire>
    800023b6:	00008717          	auipc	a4,0x8
    800023ba:	84a70713          	addi	a4,a4,-1974 # 80009c00 <totaltickets>
    800023be:	00231517          	auipc	a0,0x231
    800023c2:	97250513          	addi	a0,a0,-1678 # 80232d30 <proc>
    800023c6:	431c                	lw	a5,0(a4)
    800023c8:	1bc52683          	lw	a3,444(a0)
    800023cc:	9f95                	subw	a5,a5,a3
    800023ce:	1a952e23          	sw	s1,444(a0)
    800023d2:	9fa5                	addw	a5,a5,s1
    800023d4:	c31c                	sw	a5,0(a4)
    800023d6:	fffff097          	auipc	ra,0xfffff
    800023da:	acc080e7          	jalr	-1332(ra) # 80000ea2 <release>
    800023de:	60e2                	ld	ra,24(sp)
    800023e0:	6442                	ld	s0,16(sp)
    800023e2:	64a2                	ld	s1,8(sp)
    800023e4:	6105                	addi	sp,sp,32
    800023e6:	8082                	ret

00000000800023e8 <sched>:
    800023e8:	7179                	addi	sp,sp,-48
    800023ea:	f406                	sd	ra,40(sp)
    800023ec:	f022                	sd	s0,32(sp)
    800023ee:	ec26                	sd	s1,24(sp)
    800023f0:	e84a                	sd	s2,16(sp)
    800023f2:	e44e                	sd	s3,8(sp)
    800023f4:	1800                	addi	s0,sp,48
    800023f6:	00000097          	auipc	ra,0x0
    800023fa:	a22080e7          	jalr	-1502(ra) # 80001e18 <myproc>
    800023fe:	84aa                	mv	s1,a0
    80002400:	fffff097          	auipc	ra,0xfffff
    80002404:	974080e7          	jalr	-1676(ra) # 80000d74 <holding>
    80002408:	c93d                	beqz	a0,8000247e <sched+0x96>
    8000240a:	8792                	mv	a5,tp
    8000240c:	2781                	sext.w	a5,a5
    8000240e:	079e                	slli	a5,a5,0x7
    80002410:	00230717          	auipc	a4,0x230
    80002414:	a7870713          	addi	a4,a4,-1416 # 80231e88 <pid_lock>
    80002418:	97ba                	add	a5,a5,a4
    8000241a:	0a87a703          	lw	a4,168(a5)
    8000241e:	4785                	li	a5,1
    80002420:	06f71763          	bne	a4,a5,8000248e <sched+0xa6>
    80002424:	4c98                	lw	a4,24(s1)
    80002426:	4791                	li	a5,4
    80002428:	06f70b63          	beq	a4,a5,8000249e <sched+0xb6>
    8000242c:	100027f3          	csrr	a5,sstatus
    80002430:	8b89                	andi	a5,a5,2
    80002432:	efb5                	bnez	a5,800024ae <sched+0xc6>
    80002434:	8792                	mv	a5,tp
    80002436:	00230917          	auipc	s2,0x230
    8000243a:	a5290913          	addi	s2,s2,-1454 # 80231e88 <pid_lock>
    8000243e:	2781                	sext.w	a5,a5
    80002440:	079e                	slli	a5,a5,0x7
    80002442:	97ca                	add	a5,a5,s2
    80002444:	0ac7a983          	lw	s3,172(a5)
    80002448:	8792                	mv	a5,tp
    8000244a:	2781                	sext.w	a5,a5
    8000244c:	079e                	slli	a5,a5,0x7
    8000244e:	00230597          	auipc	a1,0x230
    80002452:	a7258593          	addi	a1,a1,-1422 # 80231ec0 <cpus+0x8>
    80002456:	95be                	add	a1,a1,a5
    80002458:	06048513          	addi	a0,s1,96
    8000245c:	00001097          	auipc	ra,0x1
    80002460:	b7e080e7          	jalr	-1154(ra) # 80002fda <swtch>
    80002464:	8792                	mv	a5,tp
    80002466:	2781                	sext.w	a5,a5
    80002468:	079e                	slli	a5,a5,0x7
    8000246a:	97ca                	add	a5,a5,s2
    8000246c:	0b37a623          	sw	s3,172(a5)
    80002470:	70a2                	ld	ra,40(sp)
    80002472:	7402                	ld	s0,32(sp)
    80002474:	64e2                	ld	s1,24(sp)
    80002476:	6942                	ld	s2,16(sp)
    80002478:	69a2                	ld	s3,8(sp)
    8000247a:	6145                	addi	sp,sp,48
    8000247c:	8082                	ret
    8000247e:	00007517          	auipc	a0,0x7
    80002482:	dfa50513          	addi	a0,a0,-518 # 80009278 <digits+0x238>
    80002486:	ffffe097          	auipc	ra,0xffffe
    8000248a:	0be080e7          	jalr	190(ra) # 80000544 <panic>
    8000248e:	00007517          	auipc	a0,0x7
    80002492:	dfa50513          	addi	a0,a0,-518 # 80009288 <digits+0x248>
    80002496:	ffffe097          	auipc	ra,0xffffe
    8000249a:	0ae080e7          	jalr	174(ra) # 80000544 <panic>
    8000249e:	00007517          	auipc	a0,0x7
    800024a2:	dfa50513          	addi	a0,a0,-518 # 80009298 <digits+0x258>
    800024a6:	ffffe097          	auipc	ra,0xffffe
    800024aa:	09e080e7          	jalr	158(ra) # 80000544 <panic>
    800024ae:	00007517          	auipc	a0,0x7
    800024b2:	dfa50513          	addi	a0,a0,-518 # 800092a8 <digits+0x268>
    800024b6:	ffffe097          	auipc	ra,0xffffe
    800024ba:	08e080e7          	jalr	142(ra) # 80000544 <panic>

00000000800024be <yield>:
    800024be:	1101                	addi	sp,sp,-32
    800024c0:	ec06                	sd	ra,24(sp)
    800024c2:	e822                	sd	s0,16(sp)
    800024c4:	e426                	sd	s1,8(sp)
    800024c6:	1000                	addi	s0,sp,32
    800024c8:	00000097          	auipc	ra,0x0
    800024cc:	950080e7          	jalr	-1712(ra) # 80001e18 <myproc>
    800024d0:	84aa                	mv	s1,a0
    800024d2:	fffff097          	auipc	ra,0xfffff
    800024d6:	91c080e7          	jalr	-1764(ra) # 80000dee <acquire>
    800024da:	478d                	li	a5,3
    800024dc:	cc9c                	sw	a5,24(s1)
    800024de:	00000097          	auipc	ra,0x0
    800024e2:	f0a080e7          	jalr	-246(ra) # 800023e8 <sched>
    800024e6:	8526                	mv	a0,s1
    800024e8:	fffff097          	auipc	ra,0xfffff
    800024ec:	9ba080e7          	jalr	-1606(ra) # 80000ea2 <release>
    800024f0:	60e2                	ld	ra,24(sp)
    800024f2:	6442                	ld	s0,16(sp)
    800024f4:	64a2                	ld	s1,8(sp)
    800024f6:	6105                	addi	sp,sp,32
    800024f8:	8082                	ret

00000000800024fa <sleep>:
    800024fa:	7179                	addi	sp,sp,-48
    800024fc:	f406                	sd	ra,40(sp)
    800024fe:	f022                	sd	s0,32(sp)
    80002500:	ec26                	sd	s1,24(sp)
    80002502:	e84a                	sd	s2,16(sp)
    80002504:	e44e                	sd	s3,8(sp)
    80002506:	1800                	addi	s0,sp,48
    80002508:	89aa                	mv	s3,a0
    8000250a:	892e                	mv	s2,a1
    8000250c:	00000097          	auipc	ra,0x0
    80002510:	90c080e7          	jalr	-1780(ra) # 80001e18 <myproc>
    80002514:	84aa                	mv	s1,a0
    80002516:	fffff097          	auipc	ra,0xfffff
    8000251a:	8d8080e7          	jalr	-1832(ra) # 80000dee <acquire>
    8000251e:	854a                	mv	a0,s2
    80002520:	fffff097          	auipc	ra,0xfffff
    80002524:	982080e7          	jalr	-1662(ra) # 80000ea2 <release>
    80002528:	0334b023          	sd	s3,32(s1)
    8000252c:	4789                	li	a5,2
    8000252e:	cc9c                	sw	a5,24(s1)
    80002530:	00007717          	auipc	a4,0x7
    80002534:	6d070713          	addi	a4,a4,1744 # 80009c00 <totaltickets>
    80002538:	431c                	lw	a5,0(a4)
    8000253a:	1bc4a683          	lw	a3,444(s1)
    8000253e:	9f95                	subw	a5,a5,a3
    80002540:	c31c                	sw	a5,0(a4)
    80002542:	00000097          	auipc	ra,0x0
    80002546:	ea6080e7          	jalr	-346(ra) # 800023e8 <sched>
    8000254a:	0204b023          	sd	zero,32(s1)
    8000254e:	8526                	mv	a0,s1
    80002550:	fffff097          	auipc	ra,0xfffff
    80002554:	952080e7          	jalr	-1710(ra) # 80000ea2 <release>
    80002558:	854a                	mv	a0,s2
    8000255a:	fffff097          	auipc	ra,0xfffff
    8000255e:	894080e7          	jalr	-1900(ra) # 80000dee <acquire>
    80002562:	70a2                	ld	ra,40(sp)
    80002564:	7402                	ld	s0,32(sp)
    80002566:	64e2                	ld	s1,24(sp)
    80002568:	6942                	ld	s2,16(sp)
    8000256a:	69a2                	ld	s3,8(sp)
    8000256c:	6145                	addi	sp,sp,48
    8000256e:	8082                	ret

0000000080002570 <wakeup>:
    80002570:	7139                	addi	sp,sp,-64
    80002572:	fc06                	sd	ra,56(sp)
    80002574:	f822                	sd	s0,48(sp)
    80002576:	f426                	sd	s1,40(sp)
    80002578:	f04a                	sd	s2,32(sp)
    8000257a:	ec4e                	sd	s3,24(sp)
    8000257c:	e852                	sd	s4,16(sp)
    8000257e:	e456                	sd	s5,8(sp)
    80002580:	0080                	addi	s0,sp,64
    80002582:	8a2a                	mv	s4,a0
    80002584:	00230497          	auipc	s1,0x230
    80002588:	7ac48493          	addi	s1,s1,1964 # 80232d30 <proc>
    8000258c:	4989                	li	s3,2
    8000258e:	4a8d                	li	s5,3
    80002590:	00238917          	auipc	s2,0x238
    80002594:	3a090913          	addi	s2,s2,928 # 8023a930 <mt>
    80002598:	a821                	j	800025b0 <wakeup+0x40>
    8000259a:	0154ac23          	sw	s5,24(s1)
    8000259e:	8526                	mv	a0,s1
    800025a0:	fffff097          	auipc	ra,0xfffff
    800025a4:	902080e7          	jalr	-1790(ra) # 80000ea2 <release>
    800025a8:	1f048493          	addi	s1,s1,496
    800025ac:	03248463          	beq	s1,s2,800025d4 <wakeup+0x64>
    800025b0:	00000097          	auipc	ra,0x0
    800025b4:	868080e7          	jalr	-1944(ra) # 80001e18 <myproc>
    800025b8:	fea488e3          	beq	s1,a0,800025a8 <wakeup+0x38>
    800025bc:	8526                	mv	a0,s1
    800025be:	fffff097          	auipc	ra,0xfffff
    800025c2:	830080e7          	jalr	-2000(ra) # 80000dee <acquire>
    800025c6:	4c9c                	lw	a5,24(s1)
    800025c8:	fd379be3          	bne	a5,s3,8000259e <wakeup+0x2e>
    800025cc:	709c                	ld	a5,32(s1)
    800025ce:	fd4798e3          	bne	a5,s4,8000259e <wakeup+0x2e>
    800025d2:	b7e1                	j	8000259a <wakeup+0x2a>
    800025d4:	70e2                	ld	ra,56(sp)
    800025d6:	7442                	ld	s0,48(sp)
    800025d8:	74a2                	ld	s1,40(sp)
    800025da:	7902                	ld	s2,32(sp)
    800025dc:	69e2                	ld	s3,24(sp)
    800025de:	6a42                	ld	s4,16(sp)
    800025e0:	6aa2                	ld	s5,8(sp)
    800025e2:	6121                	addi	sp,sp,64
    800025e4:	8082                	ret

00000000800025e6 <reparent>:
    800025e6:	7179                	addi	sp,sp,-48
    800025e8:	f406                	sd	ra,40(sp)
    800025ea:	f022                	sd	s0,32(sp)
    800025ec:	ec26                	sd	s1,24(sp)
    800025ee:	e84a                	sd	s2,16(sp)
    800025f0:	e44e                	sd	s3,8(sp)
    800025f2:	e052                	sd	s4,0(sp)
    800025f4:	1800                	addi	s0,sp,48
    800025f6:	892a                	mv	s2,a0
    800025f8:	00230497          	auipc	s1,0x230
    800025fc:	73848493          	addi	s1,s1,1848 # 80232d30 <proc>
    80002600:	00007a17          	auipc	s4,0x7
    80002604:	5f8a0a13          	addi	s4,s4,1528 # 80009bf8 <initproc>
    80002608:	00238997          	auipc	s3,0x238
    8000260c:	32898993          	addi	s3,s3,808 # 8023a930 <mt>
    80002610:	a029                	j	8000261a <reparent+0x34>
    80002612:	1f048493          	addi	s1,s1,496
    80002616:	01348d63          	beq	s1,s3,80002630 <reparent+0x4a>
    8000261a:	7c9c                	ld	a5,56(s1)
    8000261c:	ff279be3          	bne	a5,s2,80002612 <reparent+0x2c>
    80002620:	000a3503          	ld	a0,0(s4)
    80002624:	fc88                	sd	a0,56(s1)
    80002626:	00000097          	auipc	ra,0x0
    8000262a:	f4a080e7          	jalr	-182(ra) # 80002570 <wakeup>
    8000262e:	b7d5                	j	80002612 <reparent+0x2c>
    80002630:	70a2                	ld	ra,40(sp)
    80002632:	7402                	ld	s0,32(sp)
    80002634:	64e2                	ld	s1,24(sp)
    80002636:	6942                	ld	s2,16(sp)
    80002638:	69a2                	ld	s3,8(sp)
    8000263a:	6a02                	ld	s4,0(sp)
    8000263c:	6145                	addi	sp,sp,48
    8000263e:	8082                	ret

0000000080002640 <exit>:
    80002640:	7179                	addi	sp,sp,-48
    80002642:	f406                	sd	ra,40(sp)
    80002644:	f022                	sd	s0,32(sp)
    80002646:	ec26                	sd	s1,24(sp)
    80002648:	e84a                	sd	s2,16(sp)
    8000264a:	e44e                	sd	s3,8(sp)
    8000264c:	e052                	sd	s4,0(sp)
    8000264e:	1800                	addi	s0,sp,48
    80002650:	8a2a                	mv	s4,a0
    80002652:	fffff097          	auipc	ra,0xfffff
    80002656:	7c6080e7          	jalr	1990(ra) # 80001e18 <myproc>
    8000265a:	89aa                	mv	s3,a0
    8000265c:	00007797          	auipc	a5,0x7
    80002660:	59c7b783          	ld	a5,1436(a5) # 80009bf8 <initproc>
    80002664:	0d050493          	addi	s1,a0,208
    80002668:	15050913          	addi	s2,a0,336
    8000266c:	02a79363          	bne	a5,a0,80002692 <exit+0x52>
    80002670:	00007517          	auipc	a0,0x7
    80002674:	c5050513          	addi	a0,a0,-944 # 800092c0 <digits+0x280>
    80002678:	ffffe097          	auipc	ra,0xffffe
    8000267c:	ecc080e7          	jalr	-308(ra) # 80000544 <panic>
    80002680:	00003097          	auipc	ra,0x3
    80002684:	d7a080e7          	jalr	-646(ra) # 800053fa <fileclose>
    80002688:	0004b023          	sd	zero,0(s1)
    8000268c:	04a1                	addi	s1,s1,8
    8000268e:	01248563          	beq	s1,s2,80002698 <exit+0x58>
    80002692:	6088                	ld	a0,0(s1)
    80002694:	f575                	bnez	a0,80002680 <exit+0x40>
    80002696:	bfdd                	j	8000268c <exit+0x4c>
    80002698:	00003097          	auipc	ra,0x3
    8000269c:	896080e7          	jalr	-1898(ra) # 80004f2e <begin_op>
    800026a0:	1509b503          	ld	a0,336(s3)
    800026a4:	00002097          	auipc	ra,0x2
    800026a8:	082080e7          	jalr	130(ra) # 80004726 <iput>
    800026ac:	00003097          	auipc	ra,0x3
    800026b0:	902080e7          	jalr	-1790(ra) # 80004fae <end_op>
    800026b4:	1409b823          	sd	zero,336(s3)
    800026b8:	0022f497          	auipc	s1,0x22f
    800026bc:	7e848493          	addi	s1,s1,2024 # 80231ea0 <wait_lock>
    800026c0:	8526                	mv	a0,s1
    800026c2:	ffffe097          	auipc	ra,0xffffe
    800026c6:	72c080e7          	jalr	1836(ra) # 80000dee <acquire>
    800026ca:	854e                	mv	a0,s3
    800026cc:	00000097          	auipc	ra,0x0
    800026d0:	f1a080e7          	jalr	-230(ra) # 800025e6 <reparent>
    800026d4:	0389b503          	ld	a0,56(s3)
    800026d8:	00000097          	auipc	ra,0x0
    800026dc:	e98080e7          	jalr	-360(ra) # 80002570 <wakeup>
    800026e0:	854e                	mv	a0,s3
    800026e2:	ffffe097          	auipc	ra,0xffffe
    800026e6:	70c080e7          	jalr	1804(ra) # 80000dee <acquire>
    800026ea:	00007717          	auipc	a4,0x7
    800026ee:	51670713          	addi	a4,a4,1302 # 80009c00 <totaltickets>
    800026f2:	431c                	lw	a5,0(a4)
    800026f4:	1bc9a683          	lw	a3,444(s3)
    800026f8:	9f95                	subw	a5,a5,a3
    800026fa:	c31c                	sw	a5,0(a4)
    800026fc:	1a09ae23          	sw	zero,444(s3)
    80002700:	0349a623          	sw	s4,44(s3)
    80002704:	4795                	li	a5,5
    80002706:	00f9ac23          	sw	a5,24(s3)
    8000270a:	00007797          	auipc	a5,0x7
    8000270e:	4fa7a783          	lw	a5,1274(a5) # 80009c04 <ticks>
    80002712:	18f9aa23          	sw	a5,404(s3)
    80002716:	8526                	mv	a0,s1
    80002718:	ffffe097          	auipc	ra,0xffffe
    8000271c:	78a080e7          	jalr	1930(ra) # 80000ea2 <release>
    80002720:	00000097          	auipc	ra,0x0
    80002724:	cc8080e7          	jalr	-824(ra) # 800023e8 <sched>
    80002728:	00007517          	auipc	a0,0x7
    8000272c:	ba850513          	addi	a0,a0,-1112 # 800092d0 <digits+0x290>
    80002730:	ffffe097          	auipc	ra,0xffffe
    80002734:	e14080e7          	jalr	-492(ra) # 80000544 <panic>

0000000080002738 <kill>:
    80002738:	7179                	addi	sp,sp,-48
    8000273a:	f406                	sd	ra,40(sp)
    8000273c:	f022                	sd	s0,32(sp)
    8000273e:	ec26                	sd	s1,24(sp)
    80002740:	e84a                	sd	s2,16(sp)
    80002742:	e44e                	sd	s3,8(sp)
    80002744:	1800                	addi	s0,sp,48
    80002746:	892a                	mv	s2,a0
    80002748:	00230497          	auipc	s1,0x230
    8000274c:	5e848493          	addi	s1,s1,1512 # 80232d30 <proc>
    80002750:	00238997          	auipc	s3,0x238
    80002754:	1e098993          	addi	s3,s3,480 # 8023a930 <mt>
    80002758:	8526                	mv	a0,s1
    8000275a:	ffffe097          	auipc	ra,0xffffe
    8000275e:	694080e7          	jalr	1684(ra) # 80000dee <acquire>
    80002762:	589c                	lw	a5,48(s1)
    80002764:	01278d63          	beq	a5,s2,8000277e <kill+0x46>
    80002768:	8526                	mv	a0,s1
    8000276a:	ffffe097          	auipc	ra,0xffffe
    8000276e:	738080e7          	jalr	1848(ra) # 80000ea2 <release>
    80002772:	1f048493          	addi	s1,s1,496
    80002776:	ff3491e3          	bne	s1,s3,80002758 <kill+0x20>
    8000277a:	557d                	li	a0,-1
    8000277c:	a829                	j	80002796 <kill+0x5e>
    8000277e:	4785                	li	a5,1
    80002780:	d49c                	sw	a5,40(s1)
    80002782:	4c98                	lw	a4,24(s1)
    80002784:	4789                	li	a5,2
    80002786:	00f70f63          	beq	a4,a5,800027a4 <kill+0x6c>
    8000278a:	8526                	mv	a0,s1
    8000278c:	ffffe097          	auipc	ra,0xffffe
    80002790:	716080e7          	jalr	1814(ra) # 80000ea2 <release>
    80002794:	4501                	li	a0,0
    80002796:	70a2                	ld	ra,40(sp)
    80002798:	7402                	ld	s0,32(sp)
    8000279a:	64e2                	ld	s1,24(sp)
    8000279c:	6942                	ld	s2,16(sp)
    8000279e:	69a2                	ld	s3,8(sp)
    800027a0:	6145                	addi	sp,sp,48
    800027a2:	8082                	ret
    800027a4:	478d                	li	a5,3
    800027a6:	cc9c                	sw	a5,24(s1)
    800027a8:	b7cd                	j	8000278a <kill+0x52>

00000000800027aa <setkilled>:
    800027aa:	1101                	addi	sp,sp,-32
    800027ac:	ec06                	sd	ra,24(sp)
    800027ae:	e822                	sd	s0,16(sp)
    800027b0:	e426                	sd	s1,8(sp)
    800027b2:	1000                	addi	s0,sp,32
    800027b4:	84aa                	mv	s1,a0
    800027b6:	ffffe097          	auipc	ra,0xffffe
    800027ba:	638080e7          	jalr	1592(ra) # 80000dee <acquire>
    800027be:	4785                	li	a5,1
    800027c0:	d49c                	sw	a5,40(s1)
    800027c2:	8526                	mv	a0,s1
    800027c4:	ffffe097          	auipc	ra,0xffffe
    800027c8:	6de080e7          	jalr	1758(ra) # 80000ea2 <release>
    800027cc:	60e2                	ld	ra,24(sp)
    800027ce:	6442                	ld	s0,16(sp)
    800027d0:	64a2                	ld	s1,8(sp)
    800027d2:	6105                	addi	sp,sp,32
    800027d4:	8082                	ret

00000000800027d6 <killed>:
    800027d6:	1101                	addi	sp,sp,-32
    800027d8:	ec06                	sd	ra,24(sp)
    800027da:	e822                	sd	s0,16(sp)
    800027dc:	e426                	sd	s1,8(sp)
    800027de:	e04a                	sd	s2,0(sp)
    800027e0:	1000                	addi	s0,sp,32
    800027e2:	84aa                	mv	s1,a0
    800027e4:	ffffe097          	auipc	ra,0xffffe
    800027e8:	60a080e7          	jalr	1546(ra) # 80000dee <acquire>
    800027ec:	0284a903          	lw	s2,40(s1)
    800027f0:	8526                	mv	a0,s1
    800027f2:	ffffe097          	auipc	ra,0xffffe
    800027f6:	6b0080e7          	jalr	1712(ra) # 80000ea2 <release>
    800027fa:	854a                	mv	a0,s2
    800027fc:	60e2                	ld	ra,24(sp)
    800027fe:	6442                	ld	s0,16(sp)
    80002800:	64a2                	ld	s1,8(sp)
    80002802:	6902                	ld	s2,0(sp)
    80002804:	6105                	addi	sp,sp,32
    80002806:	8082                	ret

0000000080002808 <wait>:
    80002808:	715d                	addi	sp,sp,-80
    8000280a:	e486                	sd	ra,72(sp)
    8000280c:	e0a2                	sd	s0,64(sp)
    8000280e:	fc26                	sd	s1,56(sp)
    80002810:	f84a                	sd	s2,48(sp)
    80002812:	f44e                	sd	s3,40(sp)
    80002814:	f052                	sd	s4,32(sp)
    80002816:	ec56                	sd	s5,24(sp)
    80002818:	e85a                	sd	s6,16(sp)
    8000281a:	e45e                	sd	s7,8(sp)
    8000281c:	e062                	sd	s8,0(sp)
    8000281e:	0880                	addi	s0,sp,80
    80002820:	8b2a                	mv	s6,a0
    80002822:	fffff097          	auipc	ra,0xfffff
    80002826:	5f6080e7          	jalr	1526(ra) # 80001e18 <myproc>
    8000282a:	892a                	mv	s2,a0
    8000282c:	0022f517          	auipc	a0,0x22f
    80002830:	67450513          	addi	a0,a0,1652 # 80231ea0 <wait_lock>
    80002834:	ffffe097          	auipc	ra,0xffffe
    80002838:	5ba080e7          	jalr	1466(ra) # 80000dee <acquire>
    8000283c:	4b81                	li	s7,0
    8000283e:	4a15                	li	s4,5
    80002840:	00238997          	auipc	s3,0x238
    80002844:	0f098993          	addi	s3,s3,240 # 8023a930 <mt>
    80002848:	4a85                	li	s5,1
    8000284a:	0022fc17          	auipc	s8,0x22f
    8000284e:	656c0c13          	addi	s8,s8,1622 # 80231ea0 <wait_lock>
    80002852:	875e                	mv	a4,s7
    80002854:	00230497          	auipc	s1,0x230
    80002858:	4dc48493          	addi	s1,s1,1244 # 80232d30 <proc>
    8000285c:	a0bd                	j	800028ca <wait+0xc2>
    8000285e:	0304a983          	lw	s3,48(s1)
    80002862:	000b0e63          	beqz	s6,8000287e <wait+0x76>
    80002866:	4691                	li	a3,4
    80002868:	02c48613          	addi	a2,s1,44
    8000286c:	85da                	mv	a1,s6
    8000286e:	05093503          	ld	a0,80(s2)
    80002872:	fffff097          	auipc	ra,0xfffff
    80002876:	01e080e7          	jalr	30(ra) # 80001890 <copyout>
    8000287a:	02054563          	bltz	a0,800028a4 <wait+0x9c>
    8000287e:	8526                	mv	a0,s1
    80002880:	fffff097          	auipc	ra,0xfffff
    80002884:	74a080e7          	jalr	1866(ra) # 80001fca <freeproc>
    80002888:	8526                	mv	a0,s1
    8000288a:	ffffe097          	auipc	ra,0xffffe
    8000288e:	618080e7          	jalr	1560(ra) # 80000ea2 <release>
    80002892:	0022f517          	auipc	a0,0x22f
    80002896:	60e50513          	addi	a0,a0,1550 # 80231ea0 <wait_lock>
    8000289a:	ffffe097          	auipc	ra,0xffffe
    8000289e:	608080e7          	jalr	1544(ra) # 80000ea2 <release>
    800028a2:	a0b5                	j	8000290e <wait+0x106>
    800028a4:	8526                	mv	a0,s1
    800028a6:	ffffe097          	auipc	ra,0xffffe
    800028aa:	5fc080e7          	jalr	1532(ra) # 80000ea2 <release>
    800028ae:	0022f517          	auipc	a0,0x22f
    800028b2:	5f250513          	addi	a0,a0,1522 # 80231ea0 <wait_lock>
    800028b6:	ffffe097          	auipc	ra,0xffffe
    800028ba:	5ec080e7          	jalr	1516(ra) # 80000ea2 <release>
    800028be:	59fd                	li	s3,-1
    800028c0:	a0b9                	j	8000290e <wait+0x106>
    800028c2:	1f048493          	addi	s1,s1,496
    800028c6:	03348463          	beq	s1,s3,800028ee <wait+0xe6>
    800028ca:	7c9c                	ld	a5,56(s1)
    800028cc:	ff279be3          	bne	a5,s2,800028c2 <wait+0xba>
    800028d0:	8526                	mv	a0,s1
    800028d2:	ffffe097          	auipc	ra,0xffffe
    800028d6:	51c080e7          	jalr	1308(ra) # 80000dee <acquire>
    800028da:	4c9c                	lw	a5,24(s1)
    800028dc:	f94781e3          	beq	a5,s4,8000285e <wait+0x56>
    800028e0:	8526                	mv	a0,s1
    800028e2:	ffffe097          	auipc	ra,0xffffe
    800028e6:	5c0080e7          	jalr	1472(ra) # 80000ea2 <release>
    800028ea:	8756                	mv	a4,s5
    800028ec:	bfd9                	j	800028c2 <wait+0xba>
    800028ee:	c719                	beqz	a4,800028fc <wait+0xf4>
    800028f0:	854a                	mv	a0,s2
    800028f2:	00000097          	auipc	ra,0x0
    800028f6:	ee4080e7          	jalr	-284(ra) # 800027d6 <killed>
    800028fa:	c51d                	beqz	a0,80002928 <wait+0x120>
    800028fc:	0022f517          	auipc	a0,0x22f
    80002900:	5a450513          	addi	a0,a0,1444 # 80231ea0 <wait_lock>
    80002904:	ffffe097          	auipc	ra,0xffffe
    80002908:	59e080e7          	jalr	1438(ra) # 80000ea2 <release>
    8000290c:	59fd                	li	s3,-1
    8000290e:	854e                	mv	a0,s3
    80002910:	60a6                	ld	ra,72(sp)
    80002912:	6406                	ld	s0,64(sp)
    80002914:	74e2                	ld	s1,56(sp)
    80002916:	7942                	ld	s2,48(sp)
    80002918:	79a2                	ld	s3,40(sp)
    8000291a:	7a02                	ld	s4,32(sp)
    8000291c:	6ae2                	ld	s5,24(sp)
    8000291e:	6b42                	ld	s6,16(sp)
    80002920:	6ba2                	ld	s7,8(sp)
    80002922:	6c02                	ld	s8,0(sp)
    80002924:	6161                	addi	sp,sp,80
    80002926:	8082                	ret
    80002928:	85e2                	mv	a1,s8
    8000292a:	854a                	mv	a0,s2
    8000292c:	00000097          	auipc	ra,0x0
    80002930:	bce080e7          	jalr	-1074(ra) # 800024fa <sleep>
    80002934:	bf39                	j	80002852 <wait+0x4a>

0000000080002936 <either_copyout>:
    80002936:	7179                	addi	sp,sp,-48
    80002938:	f406                	sd	ra,40(sp)
    8000293a:	f022                	sd	s0,32(sp)
    8000293c:	ec26                	sd	s1,24(sp)
    8000293e:	e84a                	sd	s2,16(sp)
    80002940:	e44e                	sd	s3,8(sp)
    80002942:	e052                	sd	s4,0(sp)
    80002944:	1800                	addi	s0,sp,48
    80002946:	84aa                	mv	s1,a0
    80002948:	892e                	mv	s2,a1
    8000294a:	89b2                	mv	s3,a2
    8000294c:	8a36                	mv	s4,a3
    8000294e:	fffff097          	auipc	ra,0xfffff
    80002952:	4ca080e7          	jalr	1226(ra) # 80001e18 <myproc>
    80002956:	c08d                	beqz	s1,80002978 <either_copyout+0x42>
    80002958:	86d2                	mv	a3,s4
    8000295a:	864e                	mv	a2,s3
    8000295c:	85ca                	mv	a1,s2
    8000295e:	6928                	ld	a0,80(a0)
    80002960:	fffff097          	auipc	ra,0xfffff
    80002964:	f30080e7          	jalr	-208(ra) # 80001890 <copyout>
    80002968:	70a2                	ld	ra,40(sp)
    8000296a:	7402                	ld	s0,32(sp)
    8000296c:	64e2                	ld	s1,24(sp)
    8000296e:	6942                	ld	s2,16(sp)
    80002970:	69a2                	ld	s3,8(sp)
    80002972:	6a02                	ld	s4,0(sp)
    80002974:	6145                	addi	sp,sp,48
    80002976:	8082                	ret
    80002978:	000a061b          	sext.w	a2,s4
    8000297c:	85ce                	mv	a1,s3
    8000297e:	854a                	mv	a0,s2
    80002980:	ffffe097          	auipc	ra,0xffffe
    80002984:	5ca080e7          	jalr	1482(ra) # 80000f4a <memmove>
    80002988:	8526                	mv	a0,s1
    8000298a:	bff9                	j	80002968 <either_copyout+0x32>

000000008000298c <either_copyin>:
    8000298c:	7179                	addi	sp,sp,-48
    8000298e:	f406                	sd	ra,40(sp)
    80002990:	f022                	sd	s0,32(sp)
    80002992:	ec26                	sd	s1,24(sp)
    80002994:	e84a                	sd	s2,16(sp)
    80002996:	e44e                	sd	s3,8(sp)
    80002998:	e052                	sd	s4,0(sp)
    8000299a:	1800                	addi	s0,sp,48
    8000299c:	892a                	mv	s2,a0
    8000299e:	84ae                	mv	s1,a1
    800029a0:	89b2                	mv	s3,a2
    800029a2:	8a36                	mv	s4,a3
    800029a4:	fffff097          	auipc	ra,0xfffff
    800029a8:	474080e7          	jalr	1140(ra) # 80001e18 <myproc>
    800029ac:	c08d                	beqz	s1,800029ce <either_copyin+0x42>
    800029ae:	86d2                	mv	a3,s4
    800029b0:	864e                	mv	a2,s3
    800029b2:	85ca                	mv	a1,s2
    800029b4:	6928                	ld	a0,80(a0)
    800029b6:	fffff097          	auipc	ra,0xfffff
    800029ba:	f9e080e7          	jalr	-98(ra) # 80001954 <copyin>
    800029be:	70a2                	ld	ra,40(sp)
    800029c0:	7402                	ld	s0,32(sp)
    800029c2:	64e2                	ld	s1,24(sp)
    800029c4:	6942                	ld	s2,16(sp)
    800029c6:	69a2                	ld	s3,8(sp)
    800029c8:	6a02                	ld	s4,0(sp)
    800029ca:	6145                	addi	sp,sp,48
    800029cc:	8082                	ret
    800029ce:	000a061b          	sext.w	a2,s4
    800029d2:	85ce                	mv	a1,s3
    800029d4:	854a                	mv	a0,s2
    800029d6:	ffffe097          	auipc	ra,0xffffe
    800029da:	574080e7          	jalr	1396(ra) # 80000f4a <memmove>
    800029de:	8526                	mv	a0,s1
    800029e0:	bff9                	j	800029be <either_copyin+0x32>

00000000800029e2 <procdump>:
    800029e2:	715d                	addi	sp,sp,-80
    800029e4:	e486                	sd	ra,72(sp)
    800029e6:	e0a2                	sd	s0,64(sp)
    800029e8:	fc26                	sd	s1,56(sp)
    800029ea:	f84a                	sd	s2,48(sp)
    800029ec:	f44e                	sd	s3,40(sp)
    800029ee:	f052                	sd	s4,32(sp)
    800029f0:	ec56                	sd	s5,24(sp)
    800029f2:	e85a                	sd	s6,16(sp)
    800029f4:	e45e                	sd	s7,8(sp)
    800029f6:	0880                	addi	s0,sp,80
    800029f8:	00006517          	auipc	a0,0x6
    800029fc:	73050513          	addi	a0,a0,1840 # 80009128 <digits+0xe8>
    80002a00:	ffffe097          	auipc	ra,0xffffe
    80002a04:	b8e080e7          	jalr	-1138(ra) # 8000058e <printf>
    80002a08:	00230497          	auipc	s1,0x230
    80002a0c:	48048493          	addi	s1,s1,1152 # 80232e88 <proc+0x158>
    80002a10:	00238917          	auipc	s2,0x238
    80002a14:	07890913          	addi	s2,s2,120 # 8023aa88 <mt+0x158>
    80002a18:	4b15                	li	s6,5
    80002a1a:	00007997          	auipc	s3,0x7
    80002a1e:	8c698993          	addi	s3,s3,-1850 # 800092e0 <digits+0x2a0>
    80002a22:	00007a97          	auipc	s5,0x7
    80002a26:	8c6a8a93          	addi	s5,s5,-1850 # 800092e8 <digits+0x2a8>
    80002a2a:	00006a17          	auipc	s4,0x6
    80002a2e:	6fea0a13          	addi	s4,s4,1790 # 80009128 <digits+0xe8>
    80002a32:	00007b97          	auipc	s7,0x7
    80002a36:	91eb8b93          	addi	s7,s7,-1762 # 80009350 <mag01.1622>
    80002a3a:	a00d                	j	80002a5c <procdump+0x7a>
    80002a3c:	ed86a583          	lw	a1,-296(a3)
    80002a40:	8556                	mv	a0,s5
    80002a42:	ffffe097          	auipc	ra,0xffffe
    80002a46:	b4c080e7          	jalr	-1204(ra) # 8000058e <printf>
    80002a4a:	8552                	mv	a0,s4
    80002a4c:	ffffe097          	auipc	ra,0xffffe
    80002a50:	b42080e7          	jalr	-1214(ra) # 8000058e <printf>
    80002a54:	1f048493          	addi	s1,s1,496
    80002a58:	03248163          	beq	s1,s2,80002a7a <procdump+0x98>
    80002a5c:	86a6                	mv	a3,s1
    80002a5e:	ec04a783          	lw	a5,-320(s1)
    80002a62:	dbed                	beqz	a5,80002a54 <procdump+0x72>
    80002a64:	864e                	mv	a2,s3
    80002a66:	fcfb6be3          	bltu	s6,a5,80002a3c <procdump+0x5a>
    80002a6a:	1782                	slli	a5,a5,0x20
    80002a6c:	9381                	srli	a5,a5,0x20
    80002a6e:	078e                	slli	a5,a5,0x3
    80002a70:	97de                	add	a5,a5,s7
    80002a72:	6b90                	ld	a2,16(a5)
    80002a74:	f661                	bnez	a2,80002a3c <procdump+0x5a>
    80002a76:	864e                	mv	a2,s3
    80002a78:	b7d1                	j	80002a3c <procdump+0x5a>
    80002a7a:	60a6                	ld	ra,72(sp)
    80002a7c:	6406                	ld	s0,64(sp)
    80002a7e:	74e2                	ld	s1,56(sp)
    80002a80:	7942                	ld	s2,48(sp)
    80002a82:	79a2                	ld	s3,40(sp)
    80002a84:	7a02                	ld	s4,32(sp)
    80002a86:	6ae2                	ld	s5,24(sp)
    80002a88:	6b42                	ld	s6,16(sp)
    80002a8a:	6ba2                	ld	s7,8(sp)
    80002a8c:	6161                	addi	sp,sp,80
    80002a8e:	8082                	ret

0000000080002a90 <set_priority>:
    80002a90:	7179                	addi	sp,sp,-48
    80002a92:	f406                	sd	ra,40(sp)
    80002a94:	f022                	sd	s0,32(sp)
    80002a96:	ec26                	sd	s1,24(sp)
    80002a98:	e84a                	sd	s2,16(sp)
    80002a9a:	e44e                	sd	s3,8(sp)
    80002a9c:	e052                	sd	s4,0(sp)
    80002a9e:	1800                	addi	s0,sp,48
    80002aa0:	8a2a                	mv	s4,a0
    80002aa2:	892e                	mv	s2,a1
    80002aa4:	00230497          	auipc	s1,0x230
    80002aa8:	28c48493          	addi	s1,s1,652 # 80232d30 <proc>
    80002aac:	00238997          	auipc	s3,0x238
    80002ab0:	e8498993          	addi	s3,s3,-380 # 8023a930 <mt>
    80002ab4:	8526                	mv	a0,s1
    80002ab6:	ffffe097          	auipc	ra,0xffffe
    80002aba:	338080e7          	jalr	824(ra) # 80000dee <acquire>
    80002abe:	589c                	lw	a5,48(s1)
    80002ac0:	01278d63          	beq	a5,s2,80002ada <set_priority+0x4a>
    80002ac4:	8526                	mv	a0,s1
    80002ac6:	ffffe097          	auipc	ra,0xffffe
    80002aca:	3dc080e7          	jalr	988(ra) # 80000ea2 <release>
    80002ace:	1f048493          	addi	s1,s1,496
    80002ad2:	ff3491e3          	bne	s1,s3,80002ab4 <set_priority+0x24>
    80002ad6:	597d                	li	s2,-1
    80002ad8:	a005                	j	80002af8 <set_priority+0x68>
    80002ada:	1a44a903          	lw	s2,420(s1)
    80002ade:	1b44a223          	sw	s4,420(s1)
    80002ae2:	1a04a623          	sw	zero,428(s1)
    80002ae6:	1a04a423          	sw	zero,424(s1)
    80002aea:	8526                	mv	a0,s1
    80002aec:	ffffe097          	auipc	ra,0xffffe
    80002af0:	3b6080e7          	jalr	950(ra) # 80000ea2 <release>
    80002af4:	012a4b63          	blt	s4,s2,80002b0a <set_priority+0x7a>
    80002af8:	854a                	mv	a0,s2
    80002afa:	70a2                	ld	ra,40(sp)
    80002afc:	7402                	ld	s0,32(sp)
    80002afe:	64e2                	ld	s1,24(sp)
    80002b00:	6942                	ld	s2,16(sp)
    80002b02:	69a2                	ld	s3,8(sp)
    80002b04:	6a02                	ld	s4,0(sp)
    80002b06:	6145                	addi	sp,sp,48
    80002b08:	8082                	ret
    80002b0a:	00000097          	auipc	ra,0x0
    80002b0e:	9b4080e7          	jalr	-1612(ra) # 800024be <yield>
    80002b12:	b7dd                	j	80002af8 <set_priority+0x68>

0000000080002b14 <waitx>:
    80002b14:	711d                	addi	sp,sp,-96
    80002b16:	ec86                	sd	ra,88(sp)
    80002b18:	e8a2                	sd	s0,80(sp)
    80002b1a:	e4a6                	sd	s1,72(sp)
    80002b1c:	e0ca                	sd	s2,64(sp)
    80002b1e:	fc4e                	sd	s3,56(sp)
    80002b20:	f852                	sd	s4,48(sp)
    80002b22:	f456                	sd	s5,40(sp)
    80002b24:	f05a                	sd	s6,32(sp)
    80002b26:	ec5e                	sd	s7,24(sp)
    80002b28:	e862                	sd	s8,16(sp)
    80002b2a:	e466                	sd	s9,8(sp)
    80002b2c:	e06a                	sd	s10,0(sp)
    80002b2e:	1080                	addi	s0,sp,96
    80002b30:	8b2a                	mv	s6,a0
    80002b32:	8c2e                	mv	s8,a1
    80002b34:	8bb2                	mv	s7,a2
    80002b36:	fffff097          	auipc	ra,0xfffff
    80002b3a:	2e2080e7          	jalr	738(ra) # 80001e18 <myproc>
    80002b3e:	892a                	mv	s2,a0
    80002b40:	0022f517          	auipc	a0,0x22f
    80002b44:	36050513          	addi	a0,a0,864 # 80231ea0 <wait_lock>
    80002b48:	ffffe097          	auipc	ra,0xffffe
    80002b4c:	2a6080e7          	jalr	678(ra) # 80000dee <acquire>
    80002b50:	4c81                	li	s9,0
    80002b52:	4a15                	li	s4,5
    80002b54:	00238997          	auipc	s3,0x238
    80002b58:	ddc98993          	addi	s3,s3,-548 # 8023a930 <mt>
    80002b5c:	4a85                	li	s5,1
    80002b5e:	0022fd17          	auipc	s10,0x22f
    80002b62:	342d0d13          	addi	s10,s10,834 # 80231ea0 <wait_lock>
    80002b66:	8766                	mv	a4,s9
    80002b68:	00230497          	auipc	s1,0x230
    80002b6c:	1c848493          	addi	s1,s1,456 # 80232d30 <proc>
    80002b70:	a059                	j	80002bf6 <waitx+0xe2>
    80002b72:	0304a983          	lw	s3,48(s1)
    80002b76:	18c4a703          	lw	a4,396(s1)
    80002b7a:	00ec2023          	sw	a4,0(s8)
    80002b7e:	1904a783          	lw	a5,400(s1)
    80002b82:	9f3d                	addw	a4,a4,a5
    80002b84:	1944a783          	lw	a5,404(s1)
    80002b88:	9f99                	subw	a5,a5,a4
    80002b8a:	00fba023          	sw	a5,0(s7)
    80002b8e:	000b0e63          	beqz	s6,80002baa <waitx+0x96>
    80002b92:	4691                	li	a3,4
    80002b94:	02c48613          	addi	a2,s1,44
    80002b98:	85da                	mv	a1,s6
    80002b9a:	05093503          	ld	a0,80(s2)
    80002b9e:	fffff097          	auipc	ra,0xfffff
    80002ba2:	cf2080e7          	jalr	-782(ra) # 80001890 <copyout>
    80002ba6:	02054563          	bltz	a0,80002bd0 <waitx+0xbc>
    80002baa:	8526                	mv	a0,s1
    80002bac:	fffff097          	auipc	ra,0xfffff
    80002bb0:	41e080e7          	jalr	1054(ra) # 80001fca <freeproc>
    80002bb4:	8526                	mv	a0,s1
    80002bb6:	ffffe097          	auipc	ra,0xffffe
    80002bba:	2ec080e7          	jalr	748(ra) # 80000ea2 <release>
    80002bbe:	0022f517          	auipc	a0,0x22f
    80002bc2:	2e250513          	addi	a0,a0,738 # 80231ea0 <wait_lock>
    80002bc6:	ffffe097          	auipc	ra,0xffffe
    80002bca:	2dc080e7          	jalr	732(ra) # 80000ea2 <release>
    80002bce:	a09d                	j	80002c34 <waitx+0x120>
    80002bd0:	8526                	mv	a0,s1
    80002bd2:	ffffe097          	auipc	ra,0xffffe
    80002bd6:	2d0080e7          	jalr	720(ra) # 80000ea2 <release>
    80002bda:	0022f517          	auipc	a0,0x22f
    80002bde:	2c650513          	addi	a0,a0,710 # 80231ea0 <wait_lock>
    80002be2:	ffffe097          	auipc	ra,0xffffe
    80002be6:	2c0080e7          	jalr	704(ra) # 80000ea2 <release>
    80002bea:	59fd                	li	s3,-1
    80002bec:	a0a1                	j	80002c34 <waitx+0x120>
    80002bee:	1f048493          	addi	s1,s1,496
    80002bf2:	03348463          	beq	s1,s3,80002c1a <waitx+0x106>
    80002bf6:	7c9c                	ld	a5,56(s1)
    80002bf8:	ff279be3          	bne	a5,s2,80002bee <waitx+0xda>
    80002bfc:	8526                	mv	a0,s1
    80002bfe:	ffffe097          	auipc	ra,0xffffe
    80002c02:	1f0080e7          	jalr	496(ra) # 80000dee <acquire>
    80002c06:	4c9c                	lw	a5,24(s1)
    80002c08:	f74785e3          	beq	a5,s4,80002b72 <waitx+0x5e>
    80002c0c:	8526                	mv	a0,s1
    80002c0e:	ffffe097          	auipc	ra,0xffffe
    80002c12:	294080e7          	jalr	660(ra) # 80000ea2 <release>
    80002c16:	8756                	mv	a4,s5
    80002c18:	bfd9                	j	80002bee <waitx+0xda>
    80002c1a:	c701                	beqz	a4,80002c22 <waitx+0x10e>
    80002c1c:	02892783          	lw	a5,40(s2)
    80002c20:	cb8d                	beqz	a5,80002c52 <waitx+0x13e>
    80002c22:	0022f517          	auipc	a0,0x22f
    80002c26:	27e50513          	addi	a0,a0,638 # 80231ea0 <wait_lock>
    80002c2a:	ffffe097          	auipc	ra,0xffffe
    80002c2e:	278080e7          	jalr	632(ra) # 80000ea2 <release>
    80002c32:	59fd                	li	s3,-1
    80002c34:	854e                	mv	a0,s3
    80002c36:	60e6                	ld	ra,88(sp)
    80002c38:	6446                	ld	s0,80(sp)
    80002c3a:	64a6                	ld	s1,72(sp)
    80002c3c:	6906                	ld	s2,64(sp)
    80002c3e:	79e2                	ld	s3,56(sp)
    80002c40:	7a42                	ld	s4,48(sp)
    80002c42:	7aa2                	ld	s5,40(sp)
    80002c44:	7b02                	ld	s6,32(sp)
    80002c46:	6be2                	ld	s7,24(sp)
    80002c48:	6c42                	ld	s8,16(sp)
    80002c4a:	6ca2                	ld	s9,8(sp)
    80002c4c:	6d02                	ld	s10,0(sp)
    80002c4e:	6125                	addi	sp,sp,96
    80002c50:	8082                	ret
    80002c52:	85ea                	mv	a1,s10
    80002c54:	854a                	mv	a0,s2
    80002c56:	00000097          	auipc	ra,0x0
    80002c5a:	8a4080e7          	jalr	-1884(ra) # 800024fa <sleep>
    80002c5e:	b721                	j	80002b66 <waitx+0x52>

0000000080002c60 <updateTime>:
    80002c60:	7179                	addi	sp,sp,-48
    80002c62:	f406                	sd	ra,40(sp)
    80002c64:	f022                	sd	s0,32(sp)
    80002c66:	ec26                	sd	s1,24(sp)
    80002c68:	e84a                	sd	s2,16(sp)
    80002c6a:	e44e                	sd	s3,8(sp)
    80002c6c:	e052                	sd	s4,0(sp)
    80002c6e:	1800                	addi	s0,sp,48
    80002c70:	00230497          	auipc	s1,0x230
    80002c74:	0c048493          	addi	s1,s1,192 # 80232d30 <proc>
    80002c78:	4991                	li	s3,4
    80002c7a:	4a09                	li	s4,2
    80002c7c:	00238917          	auipc	s2,0x238
    80002c80:	cb490913          	addi	s2,s2,-844 # 8023a930 <mt>
    80002c84:	a091                	j	80002cc8 <updateTime+0x68>
    80002c86:	1ac4a783          	lw	a5,428(s1)
    80002c8a:	2785                	addiw	a5,a5,1
    80002c8c:	1af4a623          	sw	a5,428(s1)
    80002c90:	18c4a783          	lw	a5,396(s1)
    80002c94:	2785                	addiw	a5,a5,1
    80002c96:	18f4a623          	sw	a5,396(s1)
    80002c9a:	1b84a783          	lw	a5,440(s1)
    80002c9e:	078a                	slli	a5,a5,0x2
    80002ca0:	97a6                	add	a5,a5,s1
    80002ca2:	1d87a703          	lw	a4,472(a5)
    80002ca6:	2705                	addiw	a4,a4,1
    80002ca8:	1ce7ac23          	sw	a4,472(a5)
    80002cac:	1cc4a783          	lw	a5,460(s1)
    80002cb0:	37fd                	addiw	a5,a5,-1
    80002cb2:	1cf4a623          	sw	a5,460(s1)
    80002cb6:	8526                	mv	a0,s1
    80002cb8:	ffffe097          	auipc	ra,0xffffe
    80002cbc:	1ea080e7          	jalr	490(ra) # 80000ea2 <release>
    80002cc0:	1f048493          	addi	s1,s1,496
    80002cc4:	03248263          	beq	s1,s2,80002ce8 <updateTime+0x88>
    80002cc8:	8526                	mv	a0,s1
    80002cca:	ffffe097          	auipc	ra,0xffffe
    80002cce:	124080e7          	jalr	292(ra) # 80000dee <acquire>
    80002cd2:	4c9c                	lw	a5,24(s1)
    80002cd4:	fb3789e3          	beq	a5,s3,80002c86 <updateTime+0x26>
    80002cd8:	fd479fe3          	bne	a5,s4,80002cb6 <updateTime+0x56>
    80002cdc:	1a84a783          	lw	a5,424(s1)
    80002ce0:	2785                	addiw	a5,a5,1
    80002ce2:	1af4a423          	sw	a5,424(s1)
    80002ce6:	bfc1                	j	80002cb6 <updateTime+0x56>
    80002ce8:	70a2                	ld	ra,40(sp)
    80002cea:	7402                	ld	s0,32(sp)
    80002cec:	64e2                	ld	s1,24(sp)
    80002cee:	6942                	ld	s2,16(sp)
    80002cf0:	69a2                	ld	s3,8(sp)
    80002cf2:	6a02                	ld	s4,0(sp)
    80002cf4:	6145                	addi	sp,sp,48
    80002cf6:	8082                	ret

0000000080002cf8 <top>:
    80002cf8:	1141                	addi	sp,sp,-16
    80002cfa:	e422                	sd	s0,8(sp)
    80002cfc:	0800                	addi	s0,sp,16
    80002cfe:	411c                	lw	a5,0(a0)
    80002d00:	4158                	lw	a4,4(a0)
    80002d02:	00f70863          	beq	a4,a5,80002d12 <top+0x1a>
    80002d06:	078e                	slli	a5,a5,0x3
    80002d08:	953e                	add	a0,a0,a5
    80002d0a:	6508                	ld	a0,8(a0)
    80002d0c:	6422                	ld	s0,8(sp)
    80002d0e:	0141                	addi	sp,sp,16
    80002d10:	8082                	ret
    80002d12:	4501                	li	a0,0
    80002d14:	bfe5                	j	80002d0c <top+0x14>

0000000080002d16 <qpush>:
    80002d16:	21052783          	lw	a5,528(a0)
    80002d1a:	04000713          	li	a4,64
    80002d1e:	02e78363          	beq	a5,a4,80002d44 <qpush+0x2e>
    80002d22:	2785                	addiw	a5,a5,1
    80002d24:	20f52823          	sw	a5,528(a0)
    80002d28:	415c                	lw	a5,4(a0)
    80002d2a:	0017871b          	addiw	a4,a5,1
    80002d2e:	0007069b          	sext.w	a3,a4
    80002d32:	c158                	sw	a4,4(a0)
    80002d34:	078e                	slli	a5,a5,0x3
    80002d36:	97aa                	add	a5,a5,a0
    80002d38:	e78c                	sd	a1,8(a5)
    80002d3a:	04100793          	li	a5,65
    80002d3e:	00f68f63          	beq	a3,a5,80002d5c <qpush+0x46>
    80002d42:	8082                	ret
    80002d44:	1141                	addi	sp,sp,-16
    80002d46:	e406                	sd	ra,8(sp)
    80002d48:	e022                	sd	s0,0(sp)
    80002d4a:	0800                	addi	s0,sp,16
    80002d4c:	00006517          	auipc	a0,0x6
    80002d50:	5ac50513          	addi	a0,a0,1452 # 800092f8 <digits+0x2b8>
    80002d54:	ffffd097          	auipc	ra,0xffffd
    80002d58:	7f0080e7          	jalr	2032(ra) # 80000544 <panic>
    80002d5c:	00052223          	sw	zero,4(a0)
    80002d60:	b7cd                	j	80002d42 <qpush+0x2c>

0000000080002d62 <qpop>:
    80002d62:	21052783          	lw	a5,528(a0)
    80002d66:	cf91                	beqz	a5,80002d82 <qpop+0x20>
    80002d68:	37fd                	addiw	a5,a5,-1
    80002d6a:	20f52823          	sw	a5,528(a0)
    80002d6e:	411c                	lw	a5,0(a0)
    80002d70:	2785                	addiw	a5,a5,1
    80002d72:	0007869b          	sext.w	a3,a5
    80002d76:	04100713          	li	a4,65
    80002d7a:	02e68063          	beq	a3,a4,80002d9a <qpop+0x38>
    80002d7e:	c11c                	sw	a5,0(a0)
    80002d80:	8082                	ret
    80002d82:	1141                	addi	sp,sp,-16
    80002d84:	e406                	sd	ra,8(sp)
    80002d86:	e022                	sd	s0,0(sp)
    80002d88:	0800                	addi	s0,sp,16
    80002d8a:	00006517          	auipc	a0,0x6
    80002d8e:	58650513          	addi	a0,a0,1414 # 80009310 <digits+0x2d0>
    80002d92:	ffffd097          	auipc	ra,0xffffd
    80002d96:	7b2080e7          	jalr	1970(ra) # 80000544 <panic>
    80002d9a:	00052023          	sw	zero,0(a0)
    80002d9e:	8082                	ret

0000000080002da0 <qrm>:
    80002da0:	1141                	addi	sp,sp,-16
    80002da2:	e422                	sd	s0,8(sp)
    80002da4:	0800                	addi	s0,sp,16
    80002da6:	411c                	lw	a5,0(a0)
    80002da8:	00452803          	lw	a6,4(a0)
    80002dac:	03078d63          	beq	a5,a6,80002de6 <qrm+0x46>
    80002db0:	04100893          	li	a7,65
    80002db4:	a031                	j	80002dc0 <qrm+0x20>
    80002db6:	2785                	addiw	a5,a5,1
    80002db8:	0317e7bb          	remw	a5,a5,a7
    80002dbc:	03078563          	beq	a5,a6,80002de6 <qrm+0x46>
    80002dc0:	00379713          	slli	a4,a5,0x3
    80002dc4:	972a                	add	a4,a4,a0
    80002dc6:	6710                	ld	a2,8(a4)
    80002dc8:	5a14                	lw	a3,48(a2)
    80002dca:	feb696e3          	bne	a3,a1,80002db6 <qrm+0x16>
    80002dce:	0017869b          	addiw	a3,a5,1
    80002dd2:	0316e6bb          	remw	a3,a3,a7
    80002dd6:	068e                	slli	a3,a3,0x3
    80002dd8:	96aa                	add	a3,a3,a0
    80002dda:	0086b303          	ld	t1,8(a3)
    80002dde:	00673423          	sd	t1,8(a4)
    80002de2:	e690                	sd	a2,8(a3)
    80002de4:	bfc9                	j	80002db6 <qrm+0x16>
    80002de6:	21052783          	lw	a5,528(a0)
    80002dea:	37fd                	addiw	a5,a5,-1
    80002dec:	20f52823          	sw	a5,528(a0)
    80002df0:	387d                	addiw	a6,a6,-1
    80002df2:	02081793          	slli	a5,a6,0x20
    80002df6:	0007c763          	bltz	a5,80002e04 <qrm+0x64>
    80002dfa:	01052223          	sw	a6,4(a0)
    80002dfe:	6422                	ld	s0,8(sp)
    80002e00:	0141                	addi	sp,sp,16
    80002e02:	8082                	ret
    80002e04:	04000793          	li	a5,64
    80002e08:	c15c                	sw	a5,4(a0)
    80002e0a:	bfd5                	j	80002dfe <qrm+0x5e>

0000000080002e0c <scheduler>:
    80002e0c:	7119                	addi	sp,sp,-128
    80002e0e:	fc86                	sd	ra,120(sp)
    80002e10:	f8a2                	sd	s0,112(sp)
    80002e12:	f4a6                	sd	s1,104(sp)
    80002e14:	f0ca                	sd	s2,96(sp)
    80002e16:	ecce                	sd	s3,88(sp)
    80002e18:	e8d2                	sd	s4,80(sp)
    80002e1a:	e4d6                	sd	s5,72(sp)
    80002e1c:	e0da                	sd	s6,64(sp)
    80002e1e:	fc5e                	sd	s7,56(sp)
    80002e20:	f862                	sd	s8,48(sp)
    80002e22:	f466                	sd	s9,40(sp)
    80002e24:	f06a                	sd	s10,32(sp)
    80002e26:	ec6e                	sd	s11,24(sp)
    80002e28:	0100                	addi	s0,sp,128
    80002e2a:	8792                	mv	a5,tp
    80002e2c:	2781                	sext.w	a5,a5
    80002e2e:	00779693          	slli	a3,a5,0x7
    80002e32:	0022f717          	auipc	a4,0x22f
    80002e36:	05670713          	addi	a4,a4,86 # 80231e88 <pid_lock>
    80002e3a:	9736                	add	a4,a4,a3
    80002e3c:	02073823          	sd	zero,48(a4)
    80002e40:	0022f717          	auipc	a4,0x22f
    80002e44:	08070713          	addi	a4,a4,128 # 80231ec0 <cpus+0x8>
    80002e48:	9736                	add	a4,a4,a3
    80002e4a:	f8e43423          	sd	a4,-120(s0)
    80002e4e:	00007b17          	auipc	s6,0x7
    80002e52:	db6b0b13          	addi	s6,s6,-586 # 80009c04 <ticks>
    80002e56:	0022fc97          	auipc	s9,0x22f
    80002e5a:	462c8c93          	addi	s9,s9,1122 # 802322b8 <mlfq>
    80002e5e:	0022fd97          	auipc	s11,0x22f
    80002e62:	02ad8d93          	addi	s11,s11,42 # 80231e88 <pid_lock>
    80002e66:	9db6                	add	s11,s11,a3
    80002e68:	a201                	j	80002f68 <scheduler+0x15c>
    80002e6a:	1c44a503          	lw	a0,452(s1)
    80002e6e:	03850533          	mul	a0,a0,s8
    80002e72:	588c                	lw	a1,48(s1)
    80002e74:	9566                	add	a0,a0,s9
    80002e76:	00000097          	auipc	ra,0x0
    80002e7a:	f2a080e7          	jalr	-214(ra) # 80002da0 <qrm>
    80002e7e:	1c04a423          	sw	zero,456(s1)
    80002e82:	a02d                	j	80002eac <scheduler+0xa0>
    80002e84:	1f048493          	addi	s1,s1,496
    80002e88:	03348963          	beq	s1,s3,80002eba <scheduler+0xae>
    80002e8c:	4c9c                	lw	a5,24(s1)
    80002e8e:	ff279be3          	bne	a5,s2,80002e84 <scheduler+0x78>
    80002e92:	000b2703          	lw	a4,0(s6)
    80002e96:	1d44a783          	lw	a5,468(s1)
    80002e9a:	40f707bb          	subw	a5,a4,a5
    80002e9e:	fefa73e3          	bgeu	s4,a5,80002e84 <scheduler+0x78>
    80002ea2:	1ce4aa23          	sw	a4,468(s1)
    80002ea6:	1c84a783          	lw	a5,456(s1)
    80002eaa:	f3e1                	bnez	a5,80002e6a <scheduler+0x5e>
    80002eac:	1c44a783          	lw	a5,452(s1)
    80002eb0:	dbf1                	beqz	a5,80002e84 <scheduler+0x78>
    80002eb2:	37fd                	addiw	a5,a5,-1
    80002eb4:	1cf4a223          	sw	a5,452(s1)
    80002eb8:	b7f1                	j	80002e84 <scheduler+0x78>
    80002eba:	00230497          	auipc	s1,0x230
    80002ebe:	e7648493          	addi	s1,s1,-394 # 80232d30 <proc>
    80002ec2:	4a05                	li	s4,1
    80002ec4:	a035                	j	80002ef0 <scheduler+0xe4>
    80002ec6:	1c44a503          	lw	a0,452(s1)
    80002eca:	03850533          	mul	a0,a0,s8
    80002ece:	85a6                	mv	a1,s1
    80002ed0:	9566                	add	a0,a0,s9
    80002ed2:	00000097          	auipc	ra,0x0
    80002ed6:	e44080e7          	jalr	-444(ra) # 80002d16 <qpush>
    80002eda:	1d44a423          	sw	s4,456(s1)
    80002ede:	8526                	mv	a0,s1
    80002ee0:	ffffe097          	auipc	ra,0xffffe
    80002ee4:	fc2080e7          	jalr	-62(ra) # 80000ea2 <release>
    80002ee8:	1f048493          	addi	s1,s1,496
    80002eec:	01348e63          	beq	s1,s3,80002f08 <scheduler+0xfc>
    80002ef0:	8526                	mv	a0,s1
    80002ef2:	ffffe097          	auipc	ra,0xffffe
    80002ef6:	efc080e7          	jalr	-260(ra) # 80000dee <acquire>
    80002efa:	4c9c                	lw	a5,24(s1)
    80002efc:	ff2791e3          	bne	a5,s2,80002ede <scheduler+0xd2>
    80002f00:	1c84a783          	lw	a5,456(s1)
    80002f04:	ffe9                	bnez	a5,80002ede <scheduler+0xd2>
    80002f06:	b7c1                	j	80002ec6 <scheduler+0xba>
    80002f08:	0022fb97          	auipc	s7,0x22f
    80002f0c:	3b0b8b93          	addi	s7,s7,944 # 802322b8 <mlfq>
    80002f10:	00230d17          	auipc	s10,0x230
    80002f14:	e20d0d13          	addi	s10,s10,-480 # 80232d30 <proc>
    80002f18:	a041                	j	80002f98 <scheduler+0x18c>
    80002f1a:	000b2783          	lw	a5,0(s6)
    80002f1e:	1cf4aa23          	sw	a5,468(s1)
    80002f22:	1c44a703          	lw	a4,452(s1)
    80002f26:	4785                	li	a5,1
    80002f28:	00e797bb          	sllw	a5,a5,a4
    80002f2c:	1cf4a623          	sw	a5,460(s1)
    80002f30:	1d04a783          	lw	a5,464(s1)
    80002f34:	2785                	addiw	a5,a5,1
    80002f36:	1cf4a823          	sw	a5,464(s1)
    80002f3a:	4791                	li	a5,4
    80002f3c:	cc9c                	sw	a5,24(s1)
    80002f3e:	029db823          	sd	s1,48(s11)
    80002f42:	06048593          	addi	a1,s1,96
    80002f46:	f8843503          	ld	a0,-120(s0)
    80002f4a:	00000097          	auipc	ra,0x0
    80002f4e:	090080e7          	jalr	144(ra) # 80002fda <swtch>
    80002f52:	000b2783          	lw	a5,0(s6)
    80002f56:	1cf4aa23          	sw	a5,468(s1)
    80002f5a:	020db823          	sd	zero,48(s11)
    80002f5e:	8526                	mv	a0,s1
    80002f60:	ffffe097          	auipc	ra,0xffffe
    80002f64:	f42080e7          	jalr	-190(ra) # 80000ea2 <release>
    80002f68:	490d                	li	s2,3
    80002f6a:	21800c13          	li	s8,536
    80002f6e:	00238997          	auipc	s3,0x238
    80002f72:	9c298993          	addi	s3,s3,-1598 # 8023a930 <mt>
    80002f76:	100027f3          	csrr	a5,sstatus
    80002f7a:	0027e793          	ori	a5,a5,2
    80002f7e:	10079073          	csrw	sstatus,a5
    80002f82:	00230497          	auipc	s1,0x230
    80002f86:	dae48493          	addi	s1,s1,-594 # 80232d30 <proc>
    80002f8a:	03f00a13          	li	s4,63
    80002f8e:	bdfd                	j	80002e8c <scheduler+0x80>
    80002f90:	218b8b93          	addi	s7,s7,536
    80002f94:	ffab81e3          	beq	s7,s10,80002f76 <scheduler+0x16a>
    80002f98:	8a5e                	mv	s4,s7
    80002f9a:	210ba783          	lw	a5,528(s7)
    80002f9e:	dbed                	beqz	a5,80002f90 <scheduler+0x184>
    80002fa0:	8552                	mv	a0,s4
    80002fa2:	00000097          	auipc	ra,0x0
    80002fa6:	d56080e7          	jalr	-682(ra) # 80002cf8 <top>
    80002faa:	84aa                	mv	s1,a0
    80002fac:	ffffe097          	auipc	ra,0xffffe
    80002fb0:	e42080e7          	jalr	-446(ra) # 80000dee <acquire>
    80002fb4:	8552                	mv	a0,s4
    80002fb6:	00000097          	auipc	ra,0x0
    80002fba:	dac080e7          	jalr	-596(ra) # 80002d62 <qpop>
    80002fbe:	1c04a423          	sw	zero,456(s1)
    80002fc2:	4c9c                	lw	a5,24(s1)
    80002fc4:	f5278be3          	beq	a5,s2,80002f1a <scheduler+0x10e>
    80002fc8:	8526                	mv	a0,s1
    80002fca:	ffffe097          	auipc	ra,0xffffe
    80002fce:	ed8080e7          	jalr	-296(ra) # 80000ea2 <release>
    80002fd2:	210a2783          	lw	a5,528(s4)
    80002fd6:	f7e9                	bnez	a5,80002fa0 <scheduler+0x194>
    80002fd8:	bf65                	j	80002f90 <scheduler+0x184>

0000000080002fda <swtch>:
    80002fda:	00153023          	sd	ra,0(a0)
    80002fde:	00253423          	sd	sp,8(a0)
    80002fe2:	e900                	sd	s0,16(a0)
    80002fe4:	ed04                	sd	s1,24(a0)
    80002fe6:	03253023          	sd	s2,32(a0)
    80002fea:	03353423          	sd	s3,40(a0)
    80002fee:	03453823          	sd	s4,48(a0)
    80002ff2:	03553c23          	sd	s5,56(a0)
    80002ff6:	05653023          	sd	s6,64(a0)
    80002ffa:	05753423          	sd	s7,72(a0)
    80002ffe:	05853823          	sd	s8,80(a0)
    80003002:	05953c23          	sd	s9,88(a0)
    80003006:	07a53023          	sd	s10,96(a0)
    8000300a:	07b53423          	sd	s11,104(a0)
    8000300e:	0005b083          	ld	ra,0(a1)
    80003012:	0085b103          	ld	sp,8(a1)
    80003016:	6980                	ld	s0,16(a1)
    80003018:	6d84                	ld	s1,24(a1)
    8000301a:	0205b903          	ld	s2,32(a1)
    8000301e:	0285b983          	ld	s3,40(a1)
    80003022:	0305ba03          	ld	s4,48(a1)
    80003026:	0385ba83          	ld	s5,56(a1)
    8000302a:	0405bb03          	ld	s6,64(a1)
    8000302e:	0485bb83          	ld	s7,72(a1)
    80003032:	0505bc03          	ld	s8,80(a1)
    80003036:	0585bc83          	ld	s9,88(a1)
    8000303a:	0605bd03          	ld	s10,96(a1)
    8000303e:	0685bd83          	ld	s11,104(a1)
    80003042:	8082                	ret

0000000080003044 <trapinit>:
    80003044:	1141                	addi	sp,sp,-16
    80003046:	e406                	sd	ra,8(sp)
    80003048:	e022                	sd	s0,0(sp)
    8000304a:	0800                	addi	s0,sp,16
    8000304c:	00006597          	auipc	a1,0x6
    80003050:	34458593          	addi	a1,a1,836 # 80009390 <states.1850+0x30>
    80003054:	00239517          	auipc	a0,0x239
    80003058:	c5c50513          	addi	a0,a0,-932 # 8023bcb0 <tickslock>
    8000305c:	ffffe097          	auipc	ra,0xffffe
    80003060:	d02080e7          	jalr	-766(ra) # 80000d5e <initlock>
    80003064:	60a2                	ld	ra,8(sp)
    80003066:	6402                	ld	s0,0(sp)
    80003068:	0141                	addi	sp,sp,16
    8000306a:	8082                	ret

000000008000306c <trapinithart>:
    8000306c:	1141                	addi	sp,sp,-16
    8000306e:	e422                	sd	s0,8(sp)
    80003070:	0800                	addi	s0,sp,16
    80003072:	00004797          	auipc	a5,0x4
    80003076:	9ce78793          	addi	a5,a5,-1586 # 80006a40 <kernelvec>
    8000307a:	10579073          	csrw	stvec,a5
    8000307e:	6422                	ld	s0,8(sp)
    80003080:	0141                	addi	sp,sp,16
    80003082:	8082                	ret

0000000080003084 <usertrapret>:
    80003084:	1141                	addi	sp,sp,-16
    80003086:	e406                	sd	ra,8(sp)
    80003088:	e022                	sd	s0,0(sp)
    8000308a:	0800                	addi	s0,sp,16
    8000308c:	fffff097          	auipc	ra,0xfffff
    80003090:	d8c080e7          	jalr	-628(ra) # 80001e18 <myproc>
    80003094:	100027f3          	csrr	a5,sstatus
    80003098:	9bf5                	andi	a5,a5,-3
    8000309a:	10079073          	csrw	sstatus,a5
    8000309e:	00005617          	auipc	a2,0x5
    800030a2:	f6260613          	addi	a2,a2,-158 # 80008000 <_trampoline>
    800030a6:	00005697          	auipc	a3,0x5
    800030aa:	f5a68693          	addi	a3,a3,-166 # 80008000 <_trampoline>
    800030ae:	8e91                	sub	a3,a3,a2
    800030b0:	040007b7          	lui	a5,0x4000
    800030b4:	17fd                	addi	a5,a5,-1
    800030b6:	07b2                	slli	a5,a5,0xc
    800030b8:	96be                	add	a3,a3,a5
    800030ba:	10569073          	csrw	stvec,a3
    800030be:	6d38                	ld	a4,88(a0)
    800030c0:	180026f3          	csrr	a3,satp
    800030c4:	e314                	sd	a3,0(a4)
    800030c6:	6d38                	ld	a4,88(a0)
    800030c8:	6134                	ld	a3,64(a0)
    800030ca:	6585                	lui	a1,0x1
    800030cc:	96ae                	add	a3,a3,a1
    800030ce:	e714                	sd	a3,8(a4)
    800030d0:	6d38                	ld	a4,88(a0)
    800030d2:	00000697          	auipc	a3,0x0
    800030d6:	32668693          	addi	a3,a3,806 # 800033f8 <usertrap>
    800030da:	eb14                	sd	a3,16(a4)
    800030dc:	6d38                	ld	a4,88(a0)
    800030de:	8692                	mv	a3,tp
    800030e0:	f314                	sd	a3,32(a4)
    800030e2:	100026f3          	csrr	a3,sstatus
    800030e6:	eff6f693          	andi	a3,a3,-257
    800030ea:	0206e693          	ori	a3,a3,32
    800030ee:	10069073          	csrw	sstatus,a3
    800030f2:	6d38                	ld	a4,88(a0)
    800030f4:	6f18                	ld	a4,24(a4)
    800030f6:	14171073          	csrw	sepc,a4
    800030fa:	6928                	ld	a0,80(a0)
    800030fc:	8131                	srli	a0,a0,0xc
    800030fe:	00005717          	auipc	a4,0x5
    80003102:	f9e70713          	addi	a4,a4,-98 # 8000809c <userret>
    80003106:	8f11                	sub	a4,a4,a2
    80003108:	97ba                	add	a5,a5,a4
    8000310a:	577d                	li	a4,-1
    8000310c:	177e                	slli	a4,a4,0x3f
    8000310e:	8d59                	or	a0,a0,a4
    80003110:	9782                	jalr	a5
    80003112:	60a2                	ld	ra,8(sp)
    80003114:	6402                	ld	s0,0(sp)
    80003116:	0141                	addi	sp,sp,16
    80003118:	8082                	ret

000000008000311a <clockintr>:
    8000311a:	1101                	addi	sp,sp,-32
    8000311c:	ec06                	sd	ra,24(sp)
    8000311e:	e822                	sd	s0,16(sp)
    80003120:	e426                	sd	s1,8(sp)
    80003122:	e04a                	sd	s2,0(sp)
    80003124:	1000                	addi	s0,sp,32
    80003126:	00239917          	auipc	s2,0x239
    8000312a:	b8a90913          	addi	s2,s2,-1142 # 8023bcb0 <tickslock>
    8000312e:	854a                	mv	a0,s2
    80003130:	ffffe097          	auipc	ra,0xffffe
    80003134:	cbe080e7          	jalr	-834(ra) # 80000dee <acquire>
    80003138:	00007497          	auipc	s1,0x7
    8000313c:	acc48493          	addi	s1,s1,-1332 # 80009c04 <ticks>
    80003140:	409c                	lw	a5,0(s1)
    80003142:	2785                	addiw	a5,a5,1
    80003144:	c09c                	sw	a5,0(s1)
    80003146:	00000097          	auipc	ra,0x0
    8000314a:	b1a080e7          	jalr	-1254(ra) # 80002c60 <updateTime>
    8000314e:	8526                	mv	a0,s1
    80003150:	fffff097          	auipc	ra,0xfffff
    80003154:	420080e7          	jalr	1056(ra) # 80002570 <wakeup>
    80003158:	854a                	mv	a0,s2
    8000315a:	ffffe097          	auipc	ra,0xffffe
    8000315e:	d48080e7          	jalr	-696(ra) # 80000ea2 <release>
    80003162:	60e2                	ld	ra,24(sp)
    80003164:	6442                	ld	s0,16(sp)
    80003166:	64a2                	ld	s1,8(sp)
    80003168:	6902                	ld	s2,0(sp)
    8000316a:	6105                	addi	sp,sp,32
    8000316c:	8082                	ret

000000008000316e <devintr>:
    8000316e:	1101                	addi	sp,sp,-32
    80003170:	ec06                	sd	ra,24(sp)
    80003172:	e822                	sd	s0,16(sp)
    80003174:	e426                	sd	s1,8(sp)
    80003176:	1000                	addi	s0,sp,32
    80003178:	14202773          	csrr	a4,scause
    8000317c:	00074d63          	bltz	a4,80003196 <devintr+0x28>
    80003180:	57fd                	li	a5,-1
    80003182:	17fe                	slli	a5,a5,0x3f
    80003184:	0785                	addi	a5,a5,1
    80003186:	4501                	li	a0,0
    80003188:	06f70363          	beq	a4,a5,800031ee <devintr+0x80>
    8000318c:	60e2                	ld	ra,24(sp)
    8000318e:	6442                	ld	s0,16(sp)
    80003190:	64a2                	ld	s1,8(sp)
    80003192:	6105                	addi	sp,sp,32
    80003194:	8082                	ret
    80003196:	0ff77793          	andi	a5,a4,255
    8000319a:	46a5                	li	a3,9
    8000319c:	fed792e3          	bne	a5,a3,80003180 <devintr+0x12>
    800031a0:	00004097          	auipc	ra,0x4
    800031a4:	9a8080e7          	jalr	-1624(ra) # 80006b48 <plic_claim>
    800031a8:	84aa                	mv	s1,a0
    800031aa:	47a9                	li	a5,10
    800031ac:	02f50763          	beq	a0,a5,800031da <devintr+0x6c>
    800031b0:	4785                	li	a5,1
    800031b2:	02f50963          	beq	a0,a5,800031e4 <devintr+0x76>
    800031b6:	4505                	li	a0,1
    800031b8:	d8f1                	beqz	s1,8000318c <devintr+0x1e>
    800031ba:	85a6                	mv	a1,s1
    800031bc:	00006517          	auipc	a0,0x6
    800031c0:	1dc50513          	addi	a0,a0,476 # 80009398 <states.1850+0x38>
    800031c4:	ffffd097          	auipc	ra,0xffffd
    800031c8:	3ca080e7          	jalr	970(ra) # 8000058e <printf>
    800031cc:	8526                	mv	a0,s1
    800031ce:	00004097          	auipc	ra,0x4
    800031d2:	99e080e7          	jalr	-1634(ra) # 80006b6c <plic_complete>
    800031d6:	4505                	li	a0,1
    800031d8:	bf55                	j	8000318c <devintr+0x1e>
    800031da:	ffffd097          	auipc	ra,0xffffd
    800031de:	7d4080e7          	jalr	2004(ra) # 800009ae <uartintr>
    800031e2:	b7ed                	j	800031cc <devintr+0x5e>
    800031e4:	00004097          	auipc	ra,0x4
    800031e8:	eb2080e7          	jalr	-334(ra) # 80007096 <virtio_disk_intr>
    800031ec:	b7c5                	j	800031cc <devintr+0x5e>
    800031ee:	fffff097          	auipc	ra,0xfffff
    800031f2:	bfe080e7          	jalr	-1026(ra) # 80001dec <cpuid>
    800031f6:	c901                	beqz	a0,80003206 <devintr+0x98>
    800031f8:	144027f3          	csrr	a5,sip
    800031fc:	9bf5                	andi	a5,a5,-3
    800031fe:	14479073          	csrw	sip,a5
    80003202:	4509                	li	a0,2
    80003204:	b761                	j	8000318c <devintr+0x1e>
    80003206:	00000097          	auipc	ra,0x0
    8000320a:	f14080e7          	jalr	-236(ra) # 8000311a <clockintr>
    8000320e:	b7ed                	j	800031f8 <devintr+0x8a>

0000000080003210 <kerneltrap>:
    80003210:	7139                	addi	sp,sp,-64
    80003212:	fc06                	sd	ra,56(sp)
    80003214:	f822                	sd	s0,48(sp)
    80003216:	f426                	sd	s1,40(sp)
    80003218:	f04a                	sd	s2,32(sp)
    8000321a:	ec4e                	sd	s3,24(sp)
    8000321c:	e852                	sd	s4,16(sp)
    8000321e:	e456                	sd	s5,8(sp)
    80003220:	0080                	addi	s0,sp,64
    80003222:	14102973          	csrr	s2,sepc
    80003226:	100024f3          	csrr	s1,sstatus
    8000322a:	142029f3          	csrr	s3,scause
    8000322e:	1004f793          	andi	a5,s1,256
    80003232:	cb95                	beqz	a5,80003266 <kerneltrap+0x56>
    80003234:	100027f3          	csrr	a5,sstatus
    80003238:	8b89                	andi	a5,a5,2
    8000323a:	ef95                	bnez	a5,80003276 <kerneltrap+0x66>
    8000323c:	00000097          	auipc	ra,0x0
    80003240:	f32080e7          	jalr	-206(ra) # 8000316e <devintr>
    80003244:	c129                	beqz	a0,80003286 <kerneltrap+0x76>
    80003246:	4789                	li	a5,2
    80003248:	06f50c63          	beq	a0,a5,800032c0 <kerneltrap+0xb0>
    8000324c:	14191073          	csrw	sepc,s2
    80003250:	10049073          	csrw	sstatus,s1
    80003254:	70e2                	ld	ra,56(sp)
    80003256:	7442                	ld	s0,48(sp)
    80003258:	74a2                	ld	s1,40(sp)
    8000325a:	7902                	ld	s2,32(sp)
    8000325c:	69e2                	ld	s3,24(sp)
    8000325e:	6a42                	ld	s4,16(sp)
    80003260:	6aa2                	ld	s5,8(sp)
    80003262:	6121                	addi	sp,sp,64
    80003264:	8082                	ret
    80003266:	00006517          	auipc	a0,0x6
    8000326a:	15250513          	addi	a0,a0,338 # 800093b8 <states.1850+0x58>
    8000326e:	ffffd097          	auipc	ra,0xffffd
    80003272:	2d6080e7          	jalr	726(ra) # 80000544 <panic>
    80003276:	00006517          	auipc	a0,0x6
    8000327a:	16a50513          	addi	a0,a0,362 # 800093e0 <states.1850+0x80>
    8000327e:	ffffd097          	auipc	ra,0xffffd
    80003282:	2c6080e7          	jalr	710(ra) # 80000544 <panic>
    80003286:	85ce                	mv	a1,s3
    80003288:	00006517          	auipc	a0,0x6
    8000328c:	17850513          	addi	a0,a0,376 # 80009400 <states.1850+0xa0>
    80003290:	ffffd097          	auipc	ra,0xffffd
    80003294:	2fe080e7          	jalr	766(ra) # 8000058e <printf>
    80003298:	141025f3          	csrr	a1,sepc
    8000329c:	14302673          	csrr	a2,stval
    800032a0:	00006517          	auipc	a0,0x6
    800032a4:	17050513          	addi	a0,a0,368 # 80009410 <states.1850+0xb0>
    800032a8:	ffffd097          	auipc	ra,0xffffd
    800032ac:	2e6080e7          	jalr	742(ra) # 8000058e <printf>
    800032b0:	00006517          	auipc	a0,0x6
    800032b4:	17850513          	addi	a0,a0,376 # 80009428 <states.1850+0xc8>
    800032b8:	ffffd097          	auipc	ra,0xffffd
    800032bc:	28c080e7          	jalr	652(ra) # 80000544 <panic>
    800032c0:	fffff097          	auipc	ra,0xfffff
    800032c4:	b58080e7          	jalr	-1192(ra) # 80001e18 <myproc>
    800032c8:	d151                	beqz	a0,8000324c <kerneltrap+0x3c>
    800032ca:	fffff097          	auipc	ra,0xfffff
    800032ce:	b4e080e7          	jalr	-1202(ra) # 80001e18 <myproc>
    800032d2:	4d18                	lw	a4,24(a0)
    800032d4:	4791                	li	a5,4
    800032d6:	f6f71be3          	bne	a4,a5,8000324c <kerneltrap+0x3c>
    800032da:	fffff097          	auipc	ra,0xfffff
    800032de:	b3e080e7          	jalr	-1218(ra) # 80001e18 <myproc>
    800032e2:	8aaa                	mv	s5,a0
    800032e4:	1cc52783          	lw	a5,460(a0)
    800032e8:	00f05c63          	blez	a5,80003300 <kerneltrap+0xf0>
    800032ec:	1c4aa783          	lw	a5,452(s5)
    800032f0:	f4f05ee3          	blez	a5,8000324c <kerneltrap+0x3c>
    800032f4:	0022fa17          	auipc	s4,0x22f
    800032f8:	1d4a0a13          	addi	s4,s4,468 # 802324c8 <mlfq+0x210>
    800032fc:	4981                	li	s3,0
    800032fe:	a02d                	j	80003328 <kerneltrap+0x118>
    80003300:	1c452783          	lw	a5,452(a0)
    80003304:	4711                	li	a4,4
    80003306:	00e78563          	beq	a5,a4,80003310 <kerneltrap+0x100>
    8000330a:	2785                	addiw	a5,a5,1
    8000330c:	1cf52223          	sw	a5,452(a0)
    80003310:	fffff097          	auipc	ra,0xfffff
    80003314:	1ae080e7          	jalr	430(ra) # 800024be <yield>
    80003318:	bfd1                	j	800032ec <kerneltrap+0xdc>
    8000331a:	2985                	addiw	s3,s3,1
    8000331c:	218a0a13          	addi	s4,s4,536
    80003320:	1c4aa783          	lw	a5,452(s5)
    80003324:	f2f9d4e3          	bge	s3,a5,8000324c <kerneltrap+0x3c>
    80003328:	000a2783          	lw	a5,0(s4)
    8000332c:	d7fd                	beqz	a5,8000331a <kerneltrap+0x10a>
    8000332e:	fffff097          	auipc	ra,0xfffff
    80003332:	190080e7          	jalr	400(ra) # 800024be <yield>
    80003336:	b7d5                	j	8000331a <kerneltrap+0x10a>

0000000080003338 <page_fault_handler>:
    80003338:	7179                	addi	sp,sp,-48
    8000333a:	f406                	sd	ra,40(sp)
    8000333c:	f022                	sd	s0,32(sp)
    8000333e:	ec26                	sd	s1,24(sp)
    80003340:	e84a                	sd	s2,16(sp)
    80003342:	e44e                	sd	s3,8(sp)
    80003344:	e052                	sd	s4,0(sp)
    80003346:	1800                	addi	s0,sp,48
    80003348:	84aa                	mv	s1,a0
    8000334a:	892e                	mv	s2,a1
    8000334c:	fffff097          	auipc	ra,0xfffff
    80003350:	acc080e7          	jalr	-1332(ra) # 80001e18 <myproc>
    80003354:	57fd                	li	a5,-1
    80003356:	83e9                	srli	a5,a5,0x1a
    80003358:	0897e663          	bltu	a5,s1,800033e4 <page_fault_handler+0xac>
    8000335c:	6d3c                	ld	a5,88(a0)
    8000335e:	7b94                	ld	a3,48(a5)
    80003360:	77fd                	lui	a5,0xfffff
    80003362:	8ff5                	and	a5,a5,a3
    80003364:	0097e663          	bltu	a5,s1,80003370 <page_fault_handler+0x38>
    80003368:	6705                	lui	a4,0x1
    8000336a:	9726                	add	a4,a4,s1
    8000336c:	06f77e63          	bgeu	a4,a5,800033e8 <page_fault_handler+0xb0>
    80003370:	4601                	li	a2,0
    80003372:	75fd                	lui	a1,0xfffff
    80003374:	8de5                	and	a1,a1,s1
    80003376:	854a                	mv	a0,s2
    80003378:	ffffe097          	auipc	ra,0xffffe
    8000337c:	e5e080e7          	jalr	-418(ra) # 800011d6 <walk>
    80003380:	892a                	mv	s2,a0
    80003382:	c52d                	beqz	a0,800033ec <page_fault_handler+0xb4>
    80003384:	611c                	ld	a5,0(a0)
    80003386:	00a7d993          	srli	s3,a5,0xa
    8000338a:	09b2                	slli	s3,s3,0xc
    8000338c:	06098263          	beqz	s3,800033f0 <page_fault_handler+0xb8>
    80003390:	2781                	sext.w	a5,a5
    80003392:	0207f713          	andi	a4,a5,32
    80003396:	4501                	li	a0,0
    80003398:	eb09                	bnez	a4,800033aa <page_fault_handler+0x72>
    8000339a:	70a2                	ld	ra,40(sp)
    8000339c:	7402                	ld	s0,32(sp)
    8000339e:	64e2                	ld	s1,24(sp)
    800033a0:	6942                	ld	s2,16(sp)
    800033a2:	69a2                	ld	s3,8(sp)
    800033a4:	6a02                	ld	s4,0(sp)
    800033a6:	6145                	addi	sp,sp,48
    800033a8:	8082                	ret
    800033aa:	3df7f793          	andi	a5,a5,991
    800033ae:	0047e493          	ori	s1,a5,4
    800033b2:	ffffe097          	auipc	ra,0xffffe
    800033b6:	8e4080e7          	jalr	-1820(ra) # 80000c96 <kalloc>
    800033ba:	8a2a                	mv	s4,a0
    800033bc:	cd05                	beqz	a0,800033f4 <page_fault_handler+0xbc>
    800033be:	6605                	lui	a2,0x1
    800033c0:	85ce                	mv	a1,s3
    800033c2:	ffffe097          	auipc	ra,0xffffe
    800033c6:	b88080e7          	jalr	-1144(ra) # 80000f4a <memmove>
    800033ca:	00ca5793          	srli	a5,s4,0xc
    800033ce:	07aa                	slli	a5,a5,0xa
    800033d0:	8fc5                	or	a5,a5,s1
    800033d2:	00f93023          	sd	a5,0(s2)
    800033d6:	854e                	mv	a0,s3
    800033d8:	ffffd097          	auipc	ra,0xffffd
    800033dc:	688080e7          	jalr	1672(ra) # 80000a60 <kfree>
    800033e0:	4501                	li	a0,0
    800033e2:	bf65                	j	8000339a <page_fault_handler+0x62>
    800033e4:	5579                	li	a0,-2
    800033e6:	bf55                	j	8000339a <page_fault_handler+0x62>
    800033e8:	5579                	li	a0,-2
    800033ea:	bf45                	j	8000339a <page_fault_handler+0x62>
    800033ec:	557d                	li	a0,-1
    800033ee:	b775                	j	8000339a <page_fault_handler+0x62>
    800033f0:	557d                	li	a0,-1
    800033f2:	b765                	j	8000339a <page_fault_handler+0x62>
    800033f4:	557d                	li	a0,-1
    800033f6:	b755                	j	8000339a <page_fault_handler+0x62>

00000000800033f8 <usertrap>:
    800033f8:	7179                	addi	sp,sp,-48
    800033fa:	f406                	sd	ra,40(sp)
    800033fc:	f022                	sd	s0,32(sp)
    800033fe:	ec26                	sd	s1,24(sp)
    80003400:	e84a                	sd	s2,16(sp)
    80003402:	e44e                	sd	s3,8(sp)
    80003404:	1800                	addi	s0,sp,48
    80003406:	100027f3          	csrr	a5,sstatus
    8000340a:	1007f793          	andi	a5,a5,256
    8000340e:	efb1                	bnez	a5,8000346a <usertrap+0x72>
    80003410:	00003797          	auipc	a5,0x3
    80003414:	63078793          	addi	a5,a5,1584 # 80006a40 <kernelvec>
    80003418:	10579073          	csrw	stvec,a5
    8000341c:	fffff097          	auipc	ra,0xfffff
    80003420:	9fc080e7          	jalr	-1540(ra) # 80001e18 <myproc>
    80003424:	84aa                	mv	s1,a0
    80003426:	6d3c                	ld	a5,88(a0)
    80003428:	14102773          	csrr	a4,sepc
    8000342c:	ef98                	sd	a4,24(a5)
    8000342e:	14202773          	csrr	a4,scause
    80003432:	47a1                	li	a5,8
    80003434:	04f70363          	beq	a4,a5,8000347a <usertrap+0x82>
    80003438:	00000097          	auipc	ra,0x0
    8000343c:	d36080e7          	jalr	-714(ra) # 8000316e <devintr>
    80003440:	892a                	mv	s2,a0
    80003442:	c579                	beqz	a0,80003510 <usertrap+0x118>
    80003444:	4789                	li	a5,2
    80003446:	04f51e63          	bne	a0,a5,800034a2 <usertrap+0xaa>
    8000344a:	1784a783          	lw	a5,376(s1)
    8000344e:	c3c9                	beqz	a5,800034d0 <usertrap+0xd8>
    80003450:	8526                	mv	a0,s1
    80003452:	fffff097          	auipc	ra,0xfffff
    80003456:	384080e7          	jalr	900(ra) # 800027d6 <killed>
    8000345a:	12050d63          	beqz	a0,80003594 <usertrap+0x19c>
    8000345e:	557d                	li	a0,-1
    80003460:	fffff097          	auipc	ra,0xfffff
    80003464:	1e0080e7          	jalr	480(ra) # 80002640 <exit>
    80003468:	a235                	j	80003594 <usertrap+0x19c>
    8000346a:	00006517          	auipc	a0,0x6
    8000346e:	fce50513          	addi	a0,a0,-50 # 80009438 <states.1850+0xd8>
    80003472:	ffffd097          	auipc	ra,0xffffd
    80003476:	0d2080e7          	jalr	210(ra) # 80000544 <panic>
    8000347a:	fffff097          	auipc	ra,0xfffff
    8000347e:	35c080e7          	jalr	860(ra) # 800027d6 <killed>
    80003482:	e129                	bnez	a0,800034c4 <usertrap+0xcc>
    80003484:	6cb8                	ld	a4,88(s1)
    80003486:	6f1c                	ld	a5,24(a4)
    80003488:	0791                	addi	a5,a5,4
    8000348a:	ef1c                	sd	a5,24(a4)
    8000348c:	100027f3          	csrr	a5,sstatus
    80003490:	0027e793          	ori	a5,a5,2
    80003494:	10079073          	csrw	sstatus,a5
    80003498:	00000097          	auipc	ra,0x0
    8000349c:	2f6080e7          	jalr	758(ra) # 8000378e <syscall>
    800034a0:	4901                	li	s2,0
    800034a2:	8526                	mv	a0,s1
    800034a4:	fffff097          	auipc	ra,0xfffff
    800034a8:	332080e7          	jalr	818(ra) # 800027d6 <killed>
    800034ac:	ed61                	bnez	a0,80003584 <usertrap+0x18c>
    800034ae:	00000097          	auipc	ra,0x0
    800034b2:	bd6080e7          	jalr	-1066(ra) # 80003084 <usertrapret>
    800034b6:	70a2                	ld	ra,40(sp)
    800034b8:	7402                	ld	s0,32(sp)
    800034ba:	64e2                	ld	s1,24(sp)
    800034bc:	6942                	ld	s2,16(sp)
    800034be:	69a2                	ld	s3,8(sp)
    800034c0:	6145                	addi	sp,sp,48
    800034c2:	8082                	ret
    800034c4:	557d                	li	a0,-1
    800034c6:	fffff097          	auipc	ra,0xfffff
    800034ca:	17a080e7          	jalr	378(ra) # 80002640 <exit>
    800034ce:	bf5d                	j	80003484 <usertrap+0x8c>
    800034d0:	ffffd097          	auipc	ra,0xffffd
    800034d4:	7c6080e7          	jalr	1990(ra) # 80000c96 <kalloc>
    800034d8:	892a                	mv	s2,a0
    800034da:	6605                	lui	a2,0x1
    800034dc:	6cac                	ld	a1,88(s1)
    800034de:	ffffe097          	auipc	ra,0xffffe
    800034e2:	a6c080e7          	jalr	-1428(ra) # 80000f4a <memmove>
    800034e6:	1684a783          	lw	a5,360(s1)
    800034ea:	2785                	addiw	a5,a5,1
    800034ec:	0007871b          	sext.w	a4,a5
    800034f0:	16f4a423          	sw	a5,360(s1)
    800034f4:	1724b823          	sd	s2,368(s1)
    800034f8:	1884a783          	lw	a5,392(s1)
    800034fc:	f4e79ae3          	bne	a5,a4,80003450 <usertrap+0x58>
    80003500:	4785                	li	a5,1
    80003502:	16f4ac23          	sw	a5,376(s1)
    80003506:	6cbc                	ld	a5,88(s1)
    80003508:	1804b703          	ld	a4,384(s1)
    8000350c:	ef98                	sd	a4,24(a5)
    8000350e:	b789                	j	80003450 <usertrap+0x58>
    80003510:	14202773          	csrr	a4,scause
    80003514:	47b5                	li	a5,13
    80003516:	00f70763          	beq	a4,a5,80003524 <usertrap+0x12c>
    8000351a:	14202773          	csrr	a4,scause
    8000351e:	47bd                	li	a5,15
    80003520:	02f71563          	bne	a4,a5,8000354a <usertrap+0x152>
    80003524:	14302573          	csrr	a0,stval
    80003528:	68ac                	ld	a1,80(s1)
    8000352a:	00000097          	auipc	ra,0x0
    8000352e:	e0e080e7          	jalr	-498(ra) # 80003338 <page_fault_handler>
    80003532:	57f9                	li	a5,-2
    80003534:	00f50863          	beq	a0,a5,80003544 <usertrap+0x14c>
    80003538:	57fd                	li	a5,-1
    8000353a:	f6f514e3          	bne	a0,a5,800034a2 <usertrap+0xaa>
    8000353e:	4785                	li	a5,1
    80003540:	d49c                	sw	a5,40(s1)
    80003542:	b785                	j	800034a2 <usertrap+0xaa>
    80003544:	4785                	li	a5,1
    80003546:	d49c                	sw	a5,40(s1)
    80003548:	bfa9                	j	800034a2 <usertrap+0xaa>
    8000354a:	142025f3          	csrr	a1,scause
    8000354e:	5890                	lw	a2,48(s1)
    80003550:	00006517          	auipc	a0,0x6
    80003554:	f0850513          	addi	a0,a0,-248 # 80009458 <states.1850+0xf8>
    80003558:	ffffd097          	auipc	ra,0xffffd
    8000355c:	036080e7          	jalr	54(ra) # 8000058e <printf>
    80003560:	141025f3          	csrr	a1,sepc
    80003564:	14302673          	csrr	a2,stval
    80003568:	00006517          	auipc	a0,0x6
    8000356c:	f2050513          	addi	a0,a0,-224 # 80009488 <states.1850+0x128>
    80003570:	ffffd097          	auipc	ra,0xffffd
    80003574:	01e080e7          	jalr	30(ra) # 8000058e <printf>
    80003578:	8526                	mv	a0,s1
    8000357a:	fffff097          	auipc	ra,0xfffff
    8000357e:	230080e7          	jalr	560(ra) # 800027aa <setkilled>
    80003582:	b705                	j	800034a2 <usertrap+0xaa>
    80003584:	557d                	li	a0,-1
    80003586:	fffff097          	auipc	ra,0xfffff
    8000358a:	0ba080e7          	jalr	186(ra) # 80002640 <exit>
    8000358e:	4789                	li	a5,2
    80003590:	f0f91fe3          	bne	s2,a5,800034ae <usertrap+0xb6>
    80003594:	fffff097          	auipc	ra,0xfffff
    80003598:	884080e7          	jalr	-1916(ra) # 80001e18 <myproc>
    8000359c:	d909                	beqz	a0,800034ae <usertrap+0xb6>
    8000359e:	fffff097          	auipc	ra,0xfffff
    800035a2:	87a080e7          	jalr	-1926(ra) # 80001e18 <myproc>
    800035a6:	4d18                	lw	a4,24(a0)
    800035a8:	4791                	li	a5,4
    800035aa:	f0f712e3          	bne	a4,a5,800034ae <usertrap+0xb6>
    800035ae:	fffff097          	auipc	ra,0xfffff
    800035b2:	86a080e7          	jalr	-1942(ra) # 80001e18 <myproc>
