
user/_usertests:     file format elf64-littleriscv


Disassembly of section .text:

0000000000000000 <copyinstr1>:
       0:	1141                	addi	sp,sp,-16
       2:	e406                	sd	ra,8(sp)
       4:	e022                	sd	s0,0(sp)
       6:	0800                	addi	s0,sp,16
       8:	20100593          	li	a1,513
       c:	4505                	li	a0,1
       e:	057e                	slli	a0,a0,0x1f
      10:	00006097          	auipc	ra,0x6
      14:	b92080e7          	jalr	-1134(ra) # 5ba2 <open>
      18:	02055063          	bgez	a0,38 <copyinstr1+0x38>
      1c:	20100593          	li	a1,513
      20:	557d                	li	a0,-1
      22:	00006097          	auipc	ra,0x6
      26:	b80080e7          	jalr	-1152(ra) # 5ba2 <open>
      2a:	55fd                	li	a1,-1
      2c:	00055863          	bgez	a0,3c <copyinstr1+0x3c>
      30:	60a2                	ld	ra,8(sp)
      32:	6402                	ld	s0,0(sp)
      34:	0141                	addi	sp,sp,16
      36:	8082                	ret
      38:	4585                	li	a1,1
      3a:	05fe                	slli	a1,a1,0x1f
      3c:	862a                	mv	a2,a0
      3e:	00006517          	auipc	a0,0x6
      42:	09250513          	addi	a0,a0,146 # 60d0 <malloc+0x110>
      46:	00006097          	auipc	ra,0x6
      4a:	ebc080e7          	jalr	-324(ra) # 5f02 <printf>
      4e:	4505                	li	a0,1
      50:	00006097          	auipc	ra,0x6
      54:	b12080e7          	jalr	-1262(ra) # 5b62 <exit>

0000000000000058 <bsstest>:
      58:	0000a797          	auipc	a5,0xa
      5c:	50078793          	addi	a5,a5,1280 # a558 <uninit>
      60:	0000d697          	auipc	a3,0xd
      64:	c0868693          	addi	a3,a3,-1016 # cc68 <buf>
      68:	0007c703          	lbu	a4,0(a5)
      6c:	e709                	bnez	a4,76 <bsstest+0x1e>
      6e:	0785                	addi	a5,a5,1
      70:	fed79ce3          	bne	a5,a3,68 <bsstest+0x10>
      74:	8082                	ret
      76:	1141                	addi	sp,sp,-16
      78:	e406                	sd	ra,8(sp)
      7a:	e022                	sd	s0,0(sp)
      7c:	0800                	addi	s0,sp,16
      7e:	85aa                	mv	a1,a0
      80:	00006517          	auipc	a0,0x6
      84:	07050513          	addi	a0,a0,112 # 60f0 <malloc+0x130>
      88:	00006097          	auipc	ra,0x6
      8c:	e7a080e7          	jalr	-390(ra) # 5f02 <printf>
      90:	4505                	li	a0,1
      92:	00006097          	auipc	ra,0x6
      96:	ad0080e7          	jalr	-1328(ra) # 5b62 <exit>

000000000000009a <opentest>:
      9a:	1101                	addi	sp,sp,-32
      9c:	ec06                	sd	ra,24(sp)
      9e:	e822                	sd	s0,16(sp)
      a0:	e426                	sd	s1,8(sp)
      a2:	1000                	addi	s0,sp,32
      a4:	84aa                	mv	s1,a0
      a6:	4581                	li	a1,0
      a8:	00006517          	auipc	a0,0x6
      ac:	06050513          	addi	a0,a0,96 # 6108 <malloc+0x148>
      b0:	00006097          	auipc	ra,0x6
      b4:	af2080e7          	jalr	-1294(ra) # 5ba2 <open>
      b8:	02054663          	bltz	a0,e4 <opentest+0x4a>
      bc:	00006097          	auipc	ra,0x6
      c0:	ace080e7          	jalr	-1330(ra) # 5b8a <close>
      c4:	4581                	li	a1,0
      c6:	00006517          	auipc	a0,0x6
      ca:	06250513          	addi	a0,a0,98 # 6128 <malloc+0x168>
      ce:	00006097          	auipc	ra,0x6
      d2:	ad4080e7          	jalr	-1324(ra) # 5ba2 <open>
      d6:	02055563          	bgez	a0,100 <opentest+0x66>
      da:	60e2                	ld	ra,24(sp)
      dc:	6442                	ld	s0,16(sp)
      de:	64a2                	ld	s1,8(sp)
      e0:	6105                	addi	sp,sp,32
      e2:	8082                	ret
      e4:	85a6                	mv	a1,s1
      e6:	00006517          	auipc	a0,0x6
      ea:	02a50513          	addi	a0,a0,42 # 6110 <malloc+0x150>
      ee:	00006097          	auipc	ra,0x6
      f2:	e14080e7          	jalr	-492(ra) # 5f02 <printf>
      f6:	4505                	li	a0,1
      f8:	00006097          	auipc	ra,0x6
      fc:	a6a080e7          	jalr	-1430(ra) # 5b62 <exit>
     100:	85a6                	mv	a1,s1
     102:	00006517          	auipc	a0,0x6
     106:	03650513          	addi	a0,a0,54 # 6138 <malloc+0x178>
     10a:	00006097          	auipc	ra,0x6
     10e:	df8080e7          	jalr	-520(ra) # 5f02 <printf>
     112:	4505                	li	a0,1
     114:	00006097          	auipc	ra,0x6
     118:	a4e080e7          	jalr	-1458(ra) # 5b62 <exit>

000000000000011c <truncate2>:
     11c:	7179                	addi	sp,sp,-48
     11e:	f406                	sd	ra,40(sp)
     120:	f022                	sd	s0,32(sp)
     122:	ec26                	sd	s1,24(sp)
     124:	e84a                	sd	s2,16(sp)
     126:	e44e                	sd	s3,8(sp)
     128:	1800                	addi	s0,sp,48
     12a:	89aa                	mv	s3,a0
     12c:	00006517          	auipc	a0,0x6
     130:	03450513          	addi	a0,a0,52 # 6160 <malloc+0x1a0>
     134:	00006097          	auipc	ra,0x6
     138:	a7e080e7          	jalr	-1410(ra) # 5bb2 <unlink>
     13c:	60100593          	li	a1,1537
     140:	00006517          	auipc	a0,0x6
     144:	02050513          	addi	a0,a0,32 # 6160 <malloc+0x1a0>
     148:	00006097          	auipc	ra,0x6
     14c:	a5a080e7          	jalr	-1446(ra) # 5ba2 <open>
     150:	84aa                	mv	s1,a0
     152:	4611                	li	a2,4
     154:	00006597          	auipc	a1,0x6
     158:	01c58593          	addi	a1,a1,28 # 6170 <malloc+0x1b0>
     15c:	00006097          	auipc	ra,0x6
     160:	a26080e7          	jalr	-1498(ra) # 5b82 <write>
     164:	40100593          	li	a1,1025
     168:	00006517          	auipc	a0,0x6
     16c:	ff850513          	addi	a0,a0,-8 # 6160 <malloc+0x1a0>
     170:	00006097          	auipc	ra,0x6
     174:	a32080e7          	jalr	-1486(ra) # 5ba2 <open>
     178:	892a                	mv	s2,a0
     17a:	4605                	li	a2,1
     17c:	00006597          	auipc	a1,0x6
     180:	ffc58593          	addi	a1,a1,-4 # 6178 <malloc+0x1b8>
     184:	8526                	mv	a0,s1
     186:	00006097          	auipc	ra,0x6
     18a:	9fc080e7          	jalr	-1540(ra) # 5b82 <write>
     18e:	57fd                	li	a5,-1
     190:	02f51b63          	bne	a0,a5,1c6 <truncate2+0xaa>
     194:	00006517          	auipc	a0,0x6
     198:	fcc50513          	addi	a0,a0,-52 # 6160 <malloc+0x1a0>
     19c:	00006097          	auipc	ra,0x6
     1a0:	a16080e7          	jalr	-1514(ra) # 5bb2 <unlink>
     1a4:	8526                	mv	a0,s1
     1a6:	00006097          	auipc	ra,0x6
     1aa:	9e4080e7          	jalr	-1564(ra) # 5b8a <close>
     1ae:	854a                	mv	a0,s2
     1b0:	00006097          	auipc	ra,0x6
     1b4:	9da080e7          	jalr	-1574(ra) # 5b8a <close>
     1b8:	70a2                	ld	ra,40(sp)
     1ba:	7402                	ld	s0,32(sp)
     1bc:	64e2                	ld	s1,24(sp)
     1be:	6942                	ld	s2,16(sp)
     1c0:	69a2                	ld	s3,8(sp)
     1c2:	6145                	addi	sp,sp,48
     1c4:	8082                	ret
     1c6:	862a                	mv	a2,a0
     1c8:	85ce                	mv	a1,s3
     1ca:	00006517          	auipc	a0,0x6
     1ce:	fb650513          	addi	a0,a0,-74 # 6180 <malloc+0x1c0>
     1d2:	00006097          	auipc	ra,0x6
     1d6:	d30080e7          	jalr	-720(ra) # 5f02 <printf>
     1da:	4505                	li	a0,1
     1dc:	00006097          	auipc	ra,0x6
     1e0:	986080e7          	jalr	-1658(ra) # 5b62 <exit>

00000000000001e4 <createtest>:
     1e4:	7179                	addi	sp,sp,-48
     1e6:	f406                	sd	ra,40(sp)
     1e8:	f022                	sd	s0,32(sp)
     1ea:	ec26                	sd	s1,24(sp)
     1ec:	e84a                	sd	s2,16(sp)
     1ee:	1800                	addi	s0,sp,48
     1f0:	06100793          	li	a5,97
     1f4:	fcf40c23          	sb	a5,-40(s0)
     1f8:	fc040d23          	sb	zero,-38(s0)
     1fc:	03000493          	li	s1,48
     200:	06400913          	li	s2,100
     204:	fc940ca3          	sb	s1,-39(s0)
     208:	20200593          	li	a1,514
     20c:	fd840513          	addi	a0,s0,-40
     210:	00006097          	auipc	ra,0x6
     214:	992080e7          	jalr	-1646(ra) # 5ba2 <open>
     218:	00006097          	auipc	ra,0x6
     21c:	972080e7          	jalr	-1678(ra) # 5b8a <close>
     220:	2485                	addiw	s1,s1,1
     222:	0ff4f493          	andi	s1,s1,255
     226:	fd249fe3          	bne	s1,s2,204 <createtest+0x20>
     22a:	06100793          	li	a5,97
     22e:	fcf40c23          	sb	a5,-40(s0)
     232:	fc040d23          	sb	zero,-38(s0)
     236:	03000493          	li	s1,48
     23a:	06400913          	li	s2,100
     23e:	fc940ca3          	sb	s1,-39(s0)
     242:	fd840513          	addi	a0,s0,-40
     246:	00006097          	auipc	ra,0x6
     24a:	96c080e7          	jalr	-1684(ra) # 5bb2 <unlink>
     24e:	2485                	addiw	s1,s1,1
     250:	0ff4f493          	andi	s1,s1,255
     254:	ff2495e3          	bne	s1,s2,23e <createtest+0x5a>
     258:	70a2                	ld	ra,40(sp)
     25a:	7402                	ld	s0,32(sp)
     25c:	64e2                	ld	s1,24(sp)
     25e:	6942                	ld	s2,16(sp)
     260:	6145                	addi	sp,sp,48
     262:	8082                	ret

0000000000000264 <bigwrite>:
     264:	715d                	addi	sp,sp,-80
     266:	e486                	sd	ra,72(sp)
     268:	e0a2                	sd	s0,64(sp)
     26a:	fc26                	sd	s1,56(sp)
     26c:	f84a                	sd	s2,48(sp)
     26e:	f44e                	sd	s3,40(sp)
     270:	f052                	sd	s4,32(sp)
     272:	ec56                	sd	s5,24(sp)
     274:	e85a                	sd	s6,16(sp)
     276:	e45e                	sd	s7,8(sp)
     278:	0880                	addi	s0,sp,80
     27a:	8baa                	mv	s7,a0
     27c:	00006517          	auipc	a0,0x6
     280:	f2c50513          	addi	a0,a0,-212 # 61a8 <malloc+0x1e8>
     284:	00006097          	auipc	ra,0x6
     288:	92e080e7          	jalr	-1746(ra) # 5bb2 <unlink>
     28c:	1f300493          	li	s1,499
     290:	00006a97          	auipc	s5,0x6
     294:	f18a8a93          	addi	s5,s5,-232 # 61a8 <malloc+0x1e8>
     298:	0000da17          	auipc	s4,0xd
     29c:	9d0a0a13          	addi	s4,s4,-1584 # cc68 <buf>
     2a0:	6b0d                	lui	s6,0x3
     2a2:	1c9b0b13          	addi	s6,s6,457 # 31c9 <diskfull+0x6d>
     2a6:	20200593          	li	a1,514
     2aa:	8556                	mv	a0,s5
     2ac:	00006097          	auipc	ra,0x6
     2b0:	8f6080e7          	jalr	-1802(ra) # 5ba2 <open>
     2b4:	892a                	mv	s2,a0
     2b6:	04054d63          	bltz	a0,310 <bigwrite+0xac>
     2ba:	8626                	mv	a2,s1
     2bc:	85d2                	mv	a1,s4
     2be:	00006097          	auipc	ra,0x6
     2c2:	8c4080e7          	jalr	-1852(ra) # 5b82 <write>
     2c6:	89aa                	mv	s3,a0
     2c8:	06a49463          	bne	s1,a0,330 <bigwrite+0xcc>
     2cc:	8626                	mv	a2,s1
     2ce:	85d2                	mv	a1,s4
     2d0:	854a                	mv	a0,s2
     2d2:	00006097          	auipc	ra,0x6
     2d6:	8b0080e7          	jalr	-1872(ra) # 5b82 <write>
     2da:	04951963          	bne	a0,s1,32c <bigwrite+0xc8>
     2de:	854a                	mv	a0,s2
     2e0:	00006097          	auipc	ra,0x6
     2e4:	8aa080e7          	jalr	-1878(ra) # 5b8a <close>
     2e8:	8556                	mv	a0,s5
     2ea:	00006097          	auipc	ra,0x6
     2ee:	8c8080e7          	jalr	-1848(ra) # 5bb2 <unlink>
     2f2:	1d74849b          	addiw	s1,s1,471
     2f6:	fb6498e3          	bne	s1,s6,2a6 <bigwrite+0x42>
     2fa:	60a6                	ld	ra,72(sp)
     2fc:	6406                	ld	s0,64(sp)
     2fe:	74e2                	ld	s1,56(sp)
     300:	7942                	ld	s2,48(sp)
     302:	79a2                	ld	s3,40(sp)
     304:	7a02                	ld	s4,32(sp)
     306:	6ae2                	ld	s5,24(sp)
     308:	6b42                	ld	s6,16(sp)
     30a:	6ba2                	ld	s7,8(sp)
     30c:	6161                	addi	sp,sp,80
     30e:	8082                	ret
     310:	85de                	mv	a1,s7
     312:	00006517          	auipc	a0,0x6
     316:	ea650513          	addi	a0,a0,-346 # 61b8 <malloc+0x1f8>
     31a:	00006097          	auipc	ra,0x6
     31e:	be8080e7          	jalr	-1048(ra) # 5f02 <printf>
     322:	4505                	li	a0,1
     324:	00006097          	auipc	ra,0x6
     328:	83e080e7          	jalr	-1986(ra) # 5b62 <exit>
     32c:	84ce                	mv	s1,s3
     32e:	89aa                	mv	s3,a0
     330:	86ce                	mv	a3,s3
     332:	8626                	mv	a2,s1
     334:	85de                	mv	a1,s7
     336:	00006517          	auipc	a0,0x6
     33a:	ea250513          	addi	a0,a0,-350 # 61d8 <malloc+0x218>
     33e:	00006097          	auipc	ra,0x6
     342:	bc4080e7          	jalr	-1084(ra) # 5f02 <printf>
     346:	4505                	li	a0,1
     348:	00006097          	auipc	ra,0x6
     34c:	81a080e7          	jalr	-2022(ra) # 5b62 <exit>

0000000000000350 <badwrite>:
     350:	7179                	addi	sp,sp,-48
     352:	f406                	sd	ra,40(sp)
     354:	f022                	sd	s0,32(sp)
     356:	ec26                	sd	s1,24(sp)
     358:	e84a                	sd	s2,16(sp)
     35a:	e44e                	sd	s3,8(sp)
     35c:	e052                	sd	s4,0(sp)
     35e:	1800                	addi	s0,sp,48
     360:	00006517          	auipc	a0,0x6
     364:	e9050513          	addi	a0,a0,-368 # 61f0 <malloc+0x230>
     368:	00006097          	auipc	ra,0x6
     36c:	84a080e7          	jalr	-1974(ra) # 5bb2 <unlink>
     370:	25800913          	li	s2,600
     374:	00006997          	auipc	s3,0x6
     378:	e7c98993          	addi	s3,s3,-388 # 61f0 <malloc+0x230>
     37c:	5a7d                	li	s4,-1
     37e:	018a5a13          	srli	s4,s4,0x18
     382:	20100593          	li	a1,513
     386:	854e                	mv	a0,s3
     388:	00006097          	auipc	ra,0x6
     38c:	81a080e7          	jalr	-2022(ra) # 5ba2 <open>
     390:	84aa                	mv	s1,a0
     392:	06054b63          	bltz	a0,408 <badwrite+0xb8>
     396:	4605                	li	a2,1
     398:	85d2                	mv	a1,s4
     39a:	00005097          	auipc	ra,0x5
     39e:	7e8080e7          	jalr	2024(ra) # 5b82 <write>
     3a2:	8526                	mv	a0,s1
     3a4:	00005097          	auipc	ra,0x5
     3a8:	7e6080e7          	jalr	2022(ra) # 5b8a <close>
     3ac:	854e                	mv	a0,s3
     3ae:	00006097          	auipc	ra,0x6
     3b2:	804080e7          	jalr	-2044(ra) # 5bb2 <unlink>
     3b6:	397d                	addiw	s2,s2,-1
     3b8:	fc0915e3          	bnez	s2,382 <badwrite+0x32>
     3bc:	20100593          	li	a1,513
     3c0:	00006517          	auipc	a0,0x6
     3c4:	e3050513          	addi	a0,a0,-464 # 61f0 <malloc+0x230>
     3c8:	00005097          	auipc	ra,0x5
     3cc:	7da080e7          	jalr	2010(ra) # 5ba2 <open>
     3d0:	84aa                	mv	s1,a0
     3d2:	04054863          	bltz	a0,422 <badwrite+0xd2>
     3d6:	4605                	li	a2,1
     3d8:	00006597          	auipc	a1,0x6
     3dc:	da058593          	addi	a1,a1,-608 # 6178 <malloc+0x1b8>
     3e0:	00005097          	auipc	ra,0x5
     3e4:	7a2080e7          	jalr	1954(ra) # 5b82 <write>
     3e8:	4785                	li	a5,1
     3ea:	04f50963          	beq	a0,a5,43c <badwrite+0xec>
     3ee:	00006517          	auipc	a0,0x6
     3f2:	e2250513          	addi	a0,a0,-478 # 6210 <malloc+0x250>
     3f6:	00006097          	auipc	ra,0x6
     3fa:	b0c080e7          	jalr	-1268(ra) # 5f02 <printf>
     3fe:	4505                	li	a0,1
     400:	00005097          	auipc	ra,0x5
     404:	762080e7          	jalr	1890(ra) # 5b62 <exit>
     408:	00006517          	auipc	a0,0x6
     40c:	df050513          	addi	a0,a0,-528 # 61f8 <malloc+0x238>
     410:	00006097          	auipc	ra,0x6
     414:	af2080e7          	jalr	-1294(ra) # 5f02 <printf>
     418:	4505                	li	a0,1
     41a:	00005097          	auipc	ra,0x5
     41e:	748080e7          	jalr	1864(ra) # 5b62 <exit>
     422:	00006517          	auipc	a0,0x6
     426:	dd650513          	addi	a0,a0,-554 # 61f8 <malloc+0x238>
     42a:	00006097          	auipc	ra,0x6
     42e:	ad8080e7          	jalr	-1320(ra) # 5f02 <printf>
     432:	4505                	li	a0,1
     434:	00005097          	auipc	ra,0x5
     438:	72e080e7          	jalr	1838(ra) # 5b62 <exit>
     43c:	8526                	mv	a0,s1
     43e:	00005097          	auipc	ra,0x5
     442:	74c080e7          	jalr	1868(ra) # 5b8a <close>
     446:	00006517          	auipc	a0,0x6
     44a:	daa50513          	addi	a0,a0,-598 # 61f0 <malloc+0x230>
     44e:	00005097          	auipc	ra,0x5
     452:	764080e7          	jalr	1892(ra) # 5bb2 <unlink>
     456:	4501                	li	a0,0
     458:	00005097          	auipc	ra,0x5
     45c:	70a080e7          	jalr	1802(ra) # 5b62 <exit>

0000000000000460 <outofinodes>:
     460:	715d                	addi	sp,sp,-80
     462:	e486                	sd	ra,72(sp)
     464:	e0a2                	sd	s0,64(sp)
     466:	fc26                	sd	s1,56(sp)
     468:	f84a                	sd	s2,48(sp)
     46a:	f44e                	sd	s3,40(sp)
     46c:	0880                	addi	s0,sp,80
     46e:	4481                	li	s1,0
     470:	07a00913          	li	s2,122
     474:	40000993          	li	s3,1024
     478:	fb240823          	sb	s2,-80(s0)
     47c:	fb2408a3          	sb	s2,-79(s0)
     480:	41f4d79b          	sraiw	a5,s1,0x1f
     484:	01b7d71b          	srliw	a4,a5,0x1b
     488:	009707bb          	addw	a5,a4,s1
     48c:	4057d69b          	sraiw	a3,a5,0x5
     490:	0306869b          	addiw	a3,a3,48
     494:	fad40923          	sb	a3,-78(s0)
     498:	8bfd                	andi	a5,a5,31
     49a:	9f99                	subw	a5,a5,a4
     49c:	0307879b          	addiw	a5,a5,48
     4a0:	faf409a3          	sb	a5,-77(s0)
     4a4:	fa040a23          	sb	zero,-76(s0)
     4a8:	fb040513          	addi	a0,s0,-80
     4ac:	00005097          	auipc	ra,0x5
     4b0:	706080e7          	jalr	1798(ra) # 5bb2 <unlink>
     4b4:	60200593          	li	a1,1538
     4b8:	fb040513          	addi	a0,s0,-80
     4bc:	00005097          	auipc	ra,0x5
     4c0:	6e6080e7          	jalr	1766(ra) # 5ba2 <open>
     4c4:	00054963          	bltz	a0,4d6 <outofinodes+0x76>
     4c8:	00005097          	auipc	ra,0x5
     4cc:	6c2080e7          	jalr	1730(ra) # 5b8a <close>
     4d0:	2485                	addiw	s1,s1,1
     4d2:	fb3493e3          	bne	s1,s3,478 <outofinodes+0x18>
     4d6:	4481                	li	s1,0
     4d8:	07a00913          	li	s2,122
     4dc:	40000993          	li	s3,1024
     4e0:	fb240823          	sb	s2,-80(s0)
     4e4:	fb2408a3          	sb	s2,-79(s0)
     4e8:	41f4d79b          	sraiw	a5,s1,0x1f
     4ec:	01b7d71b          	srliw	a4,a5,0x1b
     4f0:	009707bb          	addw	a5,a4,s1
     4f4:	4057d69b          	sraiw	a3,a5,0x5
     4f8:	0306869b          	addiw	a3,a3,48
     4fc:	fad40923          	sb	a3,-78(s0)
     500:	8bfd                	andi	a5,a5,31
     502:	9f99                	subw	a5,a5,a4
     504:	0307879b          	addiw	a5,a5,48
     508:	faf409a3          	sb	a5,-77(s0)
     50c:	fa040a23          	sb	zero,-76(s0)
     510:	fb040513          	addi	a0,s0,-80
     514:	00005097          	auipc	ra,0x5
     518:	69e080e7          	jalr	1694(ra) # 5bb2 <unlink>
     51c:	2485                	addiw	s1,s1,1
     51e:	fd3491e3          	bne	s1,s3,4e0 <outofinodes+0x80>
     522:	60a6                	ld	ra,72(sp)
     524:	6406                	ld	s0,64(sp)
     526:	74e2                	ld	s1,56(sp)
     528:	7942                	ld	s2,48(sp)
     52a:	79a2                	ld	s3,40(sp)
     52c:	6161                	addi	sp,sp,80
     52e:	8082                	ret

0000000000000530 <copyin>:
     530:	715d                	addi	sp,sp,-80
     532:	e486                	sd	ra,72(sp)
     534:	e0a2                	sd	s0,64(sp)
     536:	fc26                	sd	s1,56(sp)
     538:	f84a                	sd	s2,48(sp)
     53a:	f44e                	sd	s3,40(sp)
     53c:	f052                	sd	s4,32(sp)
     53e:	0880                	addi	s0,sp,80
     540:	4785                	li	a5,1
     542:	07fe                	slli	a5,a5,0x1f
     544:	fcf43023          	sd	a5,-64(s0)
     548:	57fd                	li	a5,-1
     54a:	fcf43423          	sd	a5,-56(s0)
     54e:	fc040913          	addi	s2,s0,-64
     552:	00006a17          	auipc	s4,0x6
     556:	ccea0a13          	addi	s4,s4,-818 # 6220 <malloc+0x260>
     55a:	00093983          	ld	s3,0(s2)
     55e:	20100593          	li	a1,513
     562:	8552                	mv	a0,s4
     564:	00005097          	auipc	ra,0x5
     568:	63e080e7          	jalr	1598(ra) # 5ba2 <open>
     56c:	84aa                	mv	s1,a0
     56e:	08054863          	bltz	a0,5fe <copyin+0xce>
     572:	6609                	lui	a2,0x2
     574:	85ce                	mv	a1,s3
     576:	00005097          	auipc	ra,0x5
     57a:	60c080e7          	jalr	1548(ra) # 5b82 <write>
     57e:	08055d63          	bgez	a0,618 <copyin+0xe8>
     582:	8526                	mv	a0,s1
     584:	00005097          	auipc	ra,0x5
     588:	606080e7          	jalr	1542(ra) # 5b8a <close>
     58c:	8552                	mv	a0,s4
     58e:	00005097          	auipc	ra,0x5
     592:	624080e7          	jalr	1572(ra) # 5bb2 <unlink>
     596:	6609                	lui	a2,0x2
     598:	85ce                	mv	a1,s3
     59a:	4505                	li	a0,1
     59c:	00005097          	auipc	ra,0x5
     5a0:	5e6080e7          	jalr	1510(ra) # 5b82 <write>
     5a4:	08a04963          	bgtz	a0,636 <copyin+0x106>
     5a8:	fb840513          	addi	a0,s0,-72
     5ac:	00005097          	auipc	ra,0x5
     5b0:	5c6080e7          	jalr	1478(ra) # 5b72 <pipe>
     5b4:	0a054063          	bltz	a0,654 <copyin+0x124>
     5b8:	6609                	lui	a2,0x2
     5ba:	85ce                	mv	a1,s3
     5bc:	fbc42503          	lw	a0,-68(s0)
     5c0:	00005097          	auipc	ra,0x5
     5c4:	5c2080e7          	jalr	1474(ra) # 5b82 <write>
     5c8:	0aa04363          	bgtz	a0,66e <copyin+0x13e>
     5cc:	fb842503          	lw	a0,-72(s0)
     5d0:	00005097          	auipc	ra,0x5
     5d4:	5ba080e7          	jalr	1466(ra) # 5b8a <close>
     5d8:	fbc42503          	lw	a0,-68(s0)
     5dc:	00005097          	auipc	ra,0x5
     5e0:	5ae080e7          	jalr	1454(ra) # 5b8a <close>
     5e4:	0921                	addi	s2,s2,8
     5e6:	fd040793          	addi	a5,s0,-48
     5ea:	f6f918e3          	bne	s2,a5,55a <copyin+0x2a>
     5ee:	60a6                	ld	ra,72(sp)
     5f0:	6406                	ld	s0,64(sp)
     5f2:	74e2                	ld	s1,56(sp)
     5f4:	7942                	ld	s2,48(sp)
     5f6:	79a2                	ld	s3,40(sp)
     5f8:	7a02                	ld	s4,32(sp)
     5fa:	6161                	addi	sp,sp,80
     5fc:	8082                	ret
     5fe:	00006517          	auipc	a0,0x6
     602:	c2a50513          	addi	a0,a0,-982 # 6228 <malloc+0x268>
     606:	00006097          	auipc	ra,0x6
     60a:	8fc080e7          	jalr	-1796(ra) # 5f02 <printf>
     60e:	4505                	li	a0,1
     610:	00005097          	auipc	ra,0x5
     614:	552080e7          	jalr	1362(ra) # 5b62 <exit>
     618:	862a                	mv	a2,a0
     61a:	85ce                	mv	a1,s3
     61c:	00006517          	auipc	a0,0x6
     620:	c2450513          	addi	a0,a0,-988 # 6240 <malloc+0x280>
     624:	00006097          	auipc	ra,0x6
     628:	8de080e7          	jalr	-1826(ra) # 5f02 <printf>
     62c:	4505                	li	a0,1
     62e:	00005097          	auipc	ra,0x5
     632:	534080e7          	jalr	1332(ra) # 5b62 <exit>
     636:	862a                	mv	a2,a0
     638:	85ce                	mv	a1,s3
     63a:	00006517          	auipc	a0,0x6
     63e:	c3650513          	addi	a0,a0,-970 # 6270 <malloc+0x2b0>
     642:	00006097          	auipc	ra,0x6
     646:	8c0080e7          	jalr	-1856(ra) # 5f02 <printf>
     64a:	4505                	li	a0,1
     64c:	00005097          	auipc	ra,0x5
     650:	516080e7          	jalr	1302(ra) # 5b62 <exit>
     654:	00006517          	auipc	a0,0x6
     658:	c4c50513          	addi	a0,a0,-948 # 62a0 <malloc+0x2e0>
     65c:	00006097          	auipc	ra,0x6
     660:	8a6080e7          	jalr	-1882(ra) # 5f02 <printf>
     664:	4505                	li	a0,1
     666:	00005097          	auipc	ra,0x5
     66a:	4fc080e7          	jalr	1276(ra) # 5b62 <exit>
     66e:	862a                	mv	a2,a0
     670:	85ce                	mv	a1,s3
     672:	00006517          	auipc	a0,0x6
     676:	c3e50513          	addi	a0,a0,-962 # 62b0 <malloc+0x2f0>
     67a:	00006097          	auipc	ra,0x6
     67e:	888080e7          	jalr	-1912(ra) # 5f02 <printf>
     682:	4505                	li	a0,1
     684:	00005097          	auipc	ra,0x5
     688:	4de080e7          	jalr	1246(ra) # 5b62 <exit>

000000000000068c <copyout>:
     68c:	711d                	addi	sp,sp,-96
     68e:	ec86                	sd	ra,88(sp)
     690:	e8a2                	sd	s0,80(sp)
     692:	e4a6                	sd	s1,72(sp)
     694:	e0ca                	sd	s2,64(sp)
     696:	fc4e                	sd	s3,56(sp)
     698:	f852                	sd	s4,48(sp)
     69a:	f456                	sd	s5,40(sp)
     69c:	1080                	addi	s0,sp,96
     69e:	4785                	li	a5,1
     6a0:	07fe                	slli	a5,a5,0x1f
     6a2:	faf43823          	sd	a5,-80(s0)
     6a6:	57fd                	li	a5,-1
     6a8:	faf43c23          	sd	a5,-72(s0)
     6ac:	fb040913          	addi	s2,s0,-80
     6b0:	00006a17          	auipc	s4,0x6
     6b4:	c30a0a13          	addi	s4,s4,-976 # 62e0 <malloc+0x320>
     6b8:	00006a97          	auipc	s5,0x6
     6bc:	ac0a8a93          	addi	s5,s5,-1344 # 6178 <malloc+0x1b8>
     6c0:	00093983          	ld	s3,0(s2)
     6c4:	4581                	li	a1,0
     6c6:	8552                	mv	a0,s4
     6c8:	00005097          	auipc	ra,0x5
     6cc:	4da080e7          	jalr	1242(ra) # 5ba2 <open>
     6d0:	84aa                	mv	s1,a0
     6d2:	08054663          	bltz	a0,75e <copyout+0xd2>
     6d6:	6609                	lui	a2,0x2
     6d8:	85ce                	mv	a1,s3
     6da:	00005097          	auipc	ra,0x5
     6de:	4a0080e7          	jalr	1184(ra) # 5b7a <read>
     6e2:	08a04b63          	bgtz	a0,778 <copyout+0xec>
     6e6:	8526                	mv	a0,s1
     6e8:	00005097          	auipc	ra,0x5
     6ec:	4a2080e7          	jalr	1186(ra) # 5b8a <close>
     6f0:	fa840513          	addi	a0,s0,-88
     6f4:	00005097          	auipc	ra,0x5
     6f8:	47e080e7          	jalr	1150(ra) # 5b72 <pipe>
     6fc:	08054d63          	bltz	a0,796 <copyout+0x10a>
     700:	4605                	li	a2,1
     702:	85d6                	mv	a1,s5
     704:	fac42503          	lw	a0,-84(s0)
     708:	00005097          	auipc	ra,0x5
     70c:	47a080e7          	jalr	1146(ra) # 5b82 <write>
     710:	4785                	li	a5,1
     712:	08f51f63          	bne	a0,a5,7b0 <copyout+0x124>
     716:	6609                	lui	a2,0x2
     718:	85ce                	mv	a1,s3
     71a:	fa842503          	lw	a0,-88(s0)
     71e:	00005097          	auipc	ra,0x5
     722:	45c080e7          	jalr	1116(ra) # 5b7a <read>
     726:	0aa04263          	bgtz	a0,7ca <copyout+0x13e>
     72a:	fa842503          	lw	a0,-88(s0)
     72e:	00005097          	auipc	ra,0x5
     732:	45c080e7          	jalr	1116(ra) # 5b8a <close>
     736:	fac42503          	lw	a0,-84(s0)
     73a:	00005097          	auipc	ra,0x5
     73e:	450080e7          	jalr	1104(ra) # 5b8a <close>
     742:	0921                	addi	s2,s2,8
     744:	fc040793          	addi	a5,s0,-64
     748:	f6f91ce3          	bne	s2,a5,6c0 <copyout+0x34>
     74c:	60e6                	ld	ra,88(sp)
     74e:	6446                	ld	s0,80(sp)
     750:	64a6                	ld	s1,72(sp)
     752:	6906                	ld	s2,64(sp)
     754:	79e2                	ld	s3,56(sp)
     756:	7a42                	ld	s4,48(sp)
     758:	7aa2                	ld	s5,40(sp)
     75a:	6125                	addi	sp,sp,96
     75c:	8082                	ret
     75e:	00006517          	auipc	a0,0x6
     762:	b8a50513          	addi	a0,a0,-1142 # 62e8 <malloc+0x328>
     766:	00005097          	auipc	ra,0x5
     76a:	79c080e7          	jalr	1948(ra) # 5f02 <printf>
     76e:	4505                	li	a0,1
     770:	00005097          	auipc	ra,0x5
     774:	3f2080e7          	jalr	1010(ra) # 5b62 <exit>
     778:	862a                	mv	a2,a0
     77a:	85ce                	mv	a1,s3
     77c:	00006517          	auipc	a0,0x6
     780:	b8450513          	addi	a0,a0,-1148 # 6300 <malloc+0x340>
     784:	00005097          	auipc	ra,0x5
     788:	77e080e7          	jalr	1918(ra) # 5f02 <printf>
     78c:	4505                	li	a0,1
     78e:	00005097          	auipc	ra,0x5
     792:	3d4080e7          	jalr	980(ra) # 5b62 <exit>
     796:	00006517          	auipc	a0,0x6
     79a:	b0a50513          	addi	a0,a0,-1270 # 62a0 <malloc+0x2e0>
     79e:	00005097          	auipc	ra,0x5
     7a2:	764080e7          	jalr	1892(ra) # 5f02 <printf>
     7a6:	4505                	li	a0,1
     7a8:	00005097          	auipc	ra,0x5
     7ac:	3ba080e7          	jalr	954(ra) # 5b62 <exit>
     7b0:	00006517          	auipc	a0,0x6
     7b4:	b8050513          	addi	a0,a0,-1152 # 6330 <malloc+0x370>
     7b8:	00005097          	auipc	ra,0x5
     7bc:	74a080e7          	jalr	1866(ra) # 5f02 <printf>
     7c0:	4505                	li	a0,1
     7c2:	00005097          	auipc	ra,0x5
     7c6:	3a0080e7          	jalr	928(ra) # 5b62 <exit>
     7ca:	862a                	mv	a2,a0
     7cc:	85ce                	mv	a1,s3
     7ce:	00006517          	auipc	a0,0x6
     7d2:	b7a50513          	addi	a0,a0,-1158 # 6348 <malloc+0x388>
     7d6:	00005097          	auipc	ra,0x5
     7da:	72c080e7          	jalr	1836(ra) # 5f02 <printf>
     7de:	4505                	li	a0,1
     7e0:	00005097          	auipc	ra,0x5
     7e4:	382080e7          	jalr	898(ra) # 5b62 <exit>

00000000000007e8 <truncate1>:
     7e8:	711d                	addi	sp,sp,-96
     7ea:	ec86                	sd	ra,88(sp)
     7ec:	e8a2                	sd	s0,80(sp)
     7ee:	e4a6                	sd	s1,72(sp)
     7f0:	e0ca                	sd	s2,64(sp)
     7f2:	fc4e                	sd	s3,56(sp)
     7f4:	f852                	sd	s4,48(sp)
     7f6:	f456                	sd	s5,40(sp)
     7f8:	1080                	addi	s0,sp,96
     7fa:	8aaa                	mv	s5,a0
     7fc:	00006517          	auipc	a0,0x6
     800:	96450513          	addi	a0,a0,-1692 # 6160 <malloc+0x1a0>
     804:	00005097          	auipc	ra,0x5
     808:	3ae080e7          	jalr	942(ra) # 5bb2 <unlink>
     80c:	60100593          	li	a1,1537
     810:	00006517          	auipc	a0,0x6
     814:	95050513          	addi	a0,a0,-1712 # 6160 <malloc+0x1a0>
     818:	00005097          	auipc	ra,0x5
     81c:	38a080e7          	jalr	906(ra) # 5ba2 <open>
     820:	84aa                	mv	s1,a0
     822:	4611                	li	a2,4
     824:	00006597          	auipc	a1,0x6
     828:	94c58593          	addi	a1,a1,-1716 # 6170 <malloc+0x1b0>
     82c:	00005097          	auipc	ra,0x5
     830:	356080e7          	jalr	854(ra) # 5b82 <write>
     834:	8526                	mv	a0,s1
     836:	00005097          	auipc	ra,0x5
     83a:	354080e7          	jalr	852(ra) # 5b8a <close>
     83e:	4581                	li	a1,0
     840:	00006517          	auipc	a0,0x6
     844:	92050513          	addi	a0,a0,-1760 # 6160 <malloc+0x1a0>
     848:	00005097          	auipc	ra,0x5
     84c:	35a080e7          	jalr	858(ra) # 5ba2 <open>
     850:	84aa                	mv	s1,a0
     852:	02000613          	li	a2,32
     856:	fa040593          	addi	a1,s0,-96
     85a:	00005097          	auipc	ra,0x5
     85e:	320080e7          	jalr	800(ra) # 5b7a <read>
     862:	4791                	li	a5,4
     864:	0cf51e63          	bne	a0,a5,940 <truncate1+0x158>
     868:	40100593          	li	a1,1025
     86c:	00006517          	auipc	a0,0x6
     870:	8f450513          	addi	a0,a0,-1804 # 6160 <malloc+0x1a0>
     874:	00005097          	auipc	ra,0x5
     878:	32e080e7          	jalr	814(ra) # 5ba2 <open>
     87c:	89aa                	mv	s3,a0
     87e:	4581                	li	a1,0
     880:	00006517          	auipc	a0,0x6
     884:	8e050513          	addi	a0,a0,-1824 # 6160 <malloc+0x1a0>
     888:	00005097          	auipc	ra,0x5
     88c:	31a080e7          	jalr	794(ra) # 5ba2 <open>
     890:	892a                	mv	s2,a0
     892:	02000613          	li	a2,32
     896:	fa040593          	addi	a1,s0,-96
     89a:	00005097          	auipc	ra,0x5
     89e:	2e0080e7          	jalr	736(ra) # 5b7a <read>
     8a2:	8a2a                	mv	s4,a0
     8a4:	ed4d                	bnez	a0,95e <truncate1+0x176>
     8a6:	02000613          	li	a2,32
     8aa:	fa040593          	addi	a1,s0,-96
     8ae:	8526                	mv	a0,s1
     8b0:	00005097          	auipc	ra,0x5
     8b4:	2ca080e7          	jalr	714(ra) # 5b7a <read>
     8b8:	8a2a                	mv	s4,a0
     8ba:	e971                	bnez	a0,98e <truncate1+0x1a6>
     8bc:	4619                	li	a2,6
     8be:	00006597          	auipc	a1,0x6
     8c2:	b1a58593          	addi	a1,a1,-1254 # 63d8 <malloc+0x418>
     8c6:	854e                	mv	a0,s3
     8c8:	00005097          	auipc	ra,0x5
     8cc:	2ba080e7          	jalr	698(ra) # 5b82 <write>
     8d0:	02000613          	li	a2,32
     8d4:	fa040593          	addi	a1,s0,-96
     8d8:	854a                	mv	a0,s2
     8da:	00005097          	auipc	ra,0x5
     8de:	2a0080e7          	jalr	672(ra) # 5b7a <read>
     8e2:	4799                	li	a5,6
     8e4:	0cf51d63          	bne	a0,a5,9be <truncate1+0x1d6>
     8e8:	02000613          	li	a2,32
     8ec:	fa040593          	addi	a1,s0,-96
     8f0:	8526                	mv	a0,s1
     8f2:	00005097          	auipc	ra,0x5
     8f6:	288080e7          	jalr	648(ra) # 5b7a <read>
     8fa:	4789                	li	a5,2
     8fc:	0ef51063          	bne	a0,a5,9dc <truncate1+0x1f4>
     900:	00006517          	auipc	a0,0x6
     904:	86050513          	addi	a0,a0,-1952 # 6160 <malloc+0x1a0>
     908:	00005097          	auipc	ra,0x5
     90c:	2aa080e7          	jalr	682(ra) # 5bb2 <unlink>
     910:	854e                	mv	a0,s3
     912:	00005097          	auipc	ra,0x5
     916:	278080e7          	jalr	632(ra) # 5b8a <close>
     91a:	8526                	mv	a0,s1
     91c:	00005097          	auipc	ra,0x5
     920:	26e080e7          	jalr	622(ra) # 5b8a <close>
     924:	854a                	mv	a0,s2
     926:	00005097          	auipc	ra,0x5
     92a:	264080e7          	jalr	612(ra) # 5b8a <close>
     92e:	60e6                	ld	ra,88(sp)
     930:	6446                	ld	s0,80(sp)
     932:	64a6                	ld	s1,72(sp)
     934:	6906                	ld	s2,64(sp)
     936:	79e2                	ld	s3,56(sp)
     938:	7a42                	ld	s4,48(sp)
     93a:	7aa2                	ld	s5,40(sp)
     93c:	6125                	addi	sp,sp,96
     93e:	8082                	ret
     940:	862a                	mv	a2,a0
     942:	85d6                	mv	a1,s5
     944:	00006517          	auipc	a0,0x6
     948:	a3450513          	addi	a0,a0,-1484 # 6378 <malloc+0x3b8>
     94c:	00005097          	auipc	ra,0x5
     950:	5b6080e7          	jalr	1462(ra) # 5f02 <printf>
     954:	4505                	li	a0,1
     956:	00005097          	auipc	ra,0x5
     95a:	20c080e7          	jalr	524(ra) # 5b62 <exit>
     95e:	85ca                	mv	a1,s2
     960:	00006517          	auipc	a0,0x6
     964:	a3850513          	addi	a0,a0,-1480 # 6398 <malloc+0x3d8>
     968:	00005097          	auipc	ra,0x5
     96c:	59a080e7          	jalr	1434(ra) # 5f02 <printf>
     970:	8652                	mv	a2,s4
     972:	85d6                	mv	a1,s5
     974:	00006517          	auipc	a0,0x6
     978:	a3450513          	addi	a0,a0,-1484 # 63a8 <malloc+0x3e8>
     97c:	00005097          	auipc	ra,0x5
     980:	586080e7          	jalr	1414(ra) # 5f02 <printf>
     984:	4505                	li	a0,1
     986:	00005097          	auipc	ra,0x5
     98a:	1dc080e7          	jalr	476(ra) # 5b62 <exit>
     98e:	85a6                	mv	a1,s1
     990:	00006517          	auipc	a0,0x6
     994:	a3850513          	addi	a0,a0,-1480 # 63c8 <malloc+0x408>
     998:	00005097          	auipc	ra,0x5
     99c:	56a080e7          	jalr	1386(ra) # 5f02 <printf>
     9a0:	8652                	mv	a2,s4
     9a2:	85d6                	mv	a1,s5
     9a4:	00006517          	auipc	a0,0x6
     9a8:	a0450513          	addi	a0,a0,-1532 # 63a8 <malloc+0x3e8>
     9ac:	00005097          	auipc	ra,0x5
     9b0:	556080e7          	jalr	1366(ra) # 5f02 <printf>
     9b4:	4505                	li	a0,1
     9b6:	00005097          	auipc	ra,0x5
     9ba:	1ac080e7          	jalr	428(ra) # 5b62 <exit>
     9be:	862a                	mv	a2,a0
     9c0:	85d6                	mv	a1,s5
     9c2:	00006517          	auipc	a0,0x6
     9c6:	a1e50513          	addi	a0,a0,-1506 # 63e0 <malloc+0x420>
     9ca:	00005097          	auipc	ra,0x5
     9ce:	538080e7          	jalr	1336(ra) # 5f02 <printf>
     9d2:	4505                	li	a0,1
     9d4:	00005097          	auipc	ra,0x5
     9d8:	18e080e7          	jalr	398(ra) # 5b62 <exit>
     9dc:	862a                	mv	a2,a0
     9de:	85d6                	mv	a1,s5
     9e0:	00006517          	auipc	a0,0x6
     9e4:	a2050513          	addi	a0,a0,-1504 # 6400 <malloc+0x440>
     9e8:	00005097          	auipc	ra,0x5
     9ec:	51a080e7          	jalr	1306(ra) # 5f02 <printf>
     9f0:	4505                	li	a0,1
     9f2:	00005097          	auipc	ra,0x5
     9f6:	170080e7          	jalr	368(ra) # 5b62 <exit>

00000000000009fa <writetest>:
     9fa:	7139                	addi	sp,sp,-64
     9fc:	fc06                	sd	ra,56(sp)
     9fe:	f822                	sd	s0,48(sp)
     a00:	f426                	sd	s1,40(sp)
     a02:	f04a                	sd	s2,32(sp)
     a04:	ec4e                	sd	s3,24(sp)
     a06:	e852                	sd	s4,16(sp)
     a08:	e456                	sd	s5,8(sp)
     a0a:	e05a                	sd	s6,0(sp)
     a0c:	0080                	addi	s0,sp,64
     a0e:	8b2a                	mv	s6,a0
     a10:	20200593          	li	a1,514
     a14:	00006517          	auipc	a0,0x6
     a18:	a0c50513          	addi	a0,a0,-1524 # 6420 <malloc+0x460>
     a1c:	00005097          	auipc	ra,0x5
     a20:	186080e7          	jalr	390(ra) # 5ba2 <open>
     a24:	0a054d63          	bltz	a0,ade <writetest+0xe4>
     a28:	892a                	mv	s2,a0
     a2a:	4481                	li	s1,0
     a2c:	00006997          	auipc	s3,0x6
     a30:	a1c98993          	addi	s3,s3,-1508 # 6448 <malloc+0x488>
     a34:	00006a97          	auipc	s5,0x6
     a38:	a4ca8a93          	addi	s5,s5,-1460 # 6480 <malloc+0x4c0>
     a3c:	06400a13          	li	s4,100
     a40:	4629                	li	a2,10
     a42:	85ce                	mv	a1,s3
     a44:	854a                	mv	a0,s2
     a46:	00005097          	auipc	ra,0x5
     a4a:	13c080e7          	jalr	316(ra) # 5b82 <write>
     a4e:	47a9                	li	a5,10
     a50:	0af51563          	bne	a0,a5,afa <writetest+0x100>
     a54:	4629                	li	a2,10
     a56:	85d6                	mv	a1,s5
     a58:	854a                	mv	a0,s2
     a5a:	00005097          	auipc	ra,0x5
     a5e:	128080e7          	jalr	296(ra) # 5b82 <write>
     a62:	47a9                	li	a5,10
     a64:	0af51a63          	bne	a0,a5,b18 <writetest+0x11e>
     a68:	2485                	addiw	s1,s1,1
     a6a:	fd449be3          	bne	s1,s4,a40 <writetest+0x46>
     a6e:	854a                	mv	a0,s2
     a70:	00005097          	auipc	ra,0x5
     a74:	11a080e7          	jalr	282(ra) # 5b8a <close>
     a78:	4581                	li	a1,0
     a7a:	00006517          	auipc	a0,0x6
     a7e:	9a650513          	addi	a0,a0,-1626 # 6420 <malloc+0x460>
     a82:	00005097          	auipc	ra,0x5
     a86:	120080e7          	jalr	288(ra) # 5ba2 <open>
     a8a:	84aa                	mv	s1,a0
     a8c:	0a054563          	bltz	a0,b36 <writetest+0x13c>
     a90:	7d000613          	li	a2,2000
     a94:	0000c597          	auipc	a1,0xc
     a98:	1d458593          	addi	a1,a1,468 # cc68 <buf>
     a9c:	00005097          	auipc	ra,0x5
     aa0:	0de080e7          	jalr	222(ra) # 5b7a <read>
     aa4:	7d000793          	li	a5,2000
     aa8:	0af51563          	bne	a0,a5,b52 <writetest+0x158>
     aac:	8526                	mv	a0,s1
     aae:	00005097          	auipc	ra,0x5
     ab2:	0dc080e7          	jalr	220(ra) # 5b8a <close>
     ab6:	00006517          	auipc	a0,0x6
     aba:	96a50513          	addi	a0,a0,-1686 # 6420 <malloc+0x460>
     abe:	00005097          	auipc	ra,0x5
     ac2:	0f4080e7          	jalr	244(ra) # 5bb2 <unlink>
     ac6:	0a054463          	bltz	a0,b6e <writetest+0x174>
     aca:	70e2                	ld	ra,56(sp)
     acc:	7442                	ld	s0,48(sp)
     ace:	74a2                	ld	s1,40(sp)
     ad0:	7902                	ld	s2,32(sp)
     ad2:	69e2                	ld	s3,24(sp)
     ad4:	6a42                	ld	s4,16(sp)
     ad6:	6aa2                	ld	s5,8(sp)
     ad8:	6b02                	ld	s6,0(sp)
     ada:	6121                	addi	sp,sp,64
     adc:	8082                	ret
     ade:	85da                	mv	a1,s6
     ae0:	00006517          	auipc	a0,0x6
     ae4:	94850513          	addi	a0,a0,-1720 # 6428 <malloc+0x468>
     ae8:	00005097          	auipc	ra,0x5
     aec:	41a080e7          	jalr	1050(ra) # 5f02 <printf>
     af0:	4505                	li	a0,1
     af2:	00005097          	auipc	ra,0x5
     af6:	070080e7          	jalr	112(ra) # 5b62 <exit>
     afa:	8626                	mv	a2,s1
     afc:	85da                	mv	a1,s6
     afe:	00006517          	auipc	a0,0x6
     b02:	95a50513          	addi	a0,a0,-1702 # 6458 <malloc+0x498>
     b06:	00005097          	auipc	ra,0x5
     b0a:	3fc080e7          	jalr	1020(ra) # 5f02 <printf>
     b0e:	4505                	li	a0,1
     b10:	00005097          	auipc	ra,0x5
     b14:	052080e7          	jalr	82(ra) # 5b62 <exit>
     b18:	8626                	mv	a2,s1
     b1a:	85da                	mv	a1,s6
     b1c:	00006517          	auipc	a0,0x6
     b20:	97450513          	addi	a0,a0,-1676 # 6490 <malloc+0x4d0>
     b24:	00005097          	auipc	ra,0x5
     b28:	3de080e7          	jalr	990(ra) # 5f02 <printf>
     b2c:	4505                	li	a0,1
     b2e:	00005097          	auipc	ra,0x5
     b32:	034080e7          	jalr	52(ra) # 5b62 <exit>
     b36:	85da                	mv	a1,s6
     b38:	00006517          	auipc	a0,0x6
     b3c:	98050513          	addi	a0,a0,-1664 # 64b8 <malloc+0x4f8>
     b40:	00005097          	auipc	ra,0x5
     b44:	3c2080e7          	jalr	962(ra) # 5f02 <printf>
     b48:	4505                	li	a0,1
     b4a:	00005097          	auipc	ra,0x5
     b4e:	018080e7          	jalr	24(ra) # 5b62 <exit>
     b52:	85da                	mv	a1,s6
     b54:	00006517          	auipc	a0,0x6
     b58:	98450513          	addi	a0,a0,-1660 # 64d8 <malloc+0x518>
     b5c:	00005097          	auipc	ra,0x5
     b60:	3a6080e7          	jalr	934(ra) # 5f02 <printf>
     b64:	4505                	li	a0,1
     b66:	00005097          	auipc	ra,0x5
     b6a:	ffc080e7          	jalr	-4(ra) # 5b62 <exit>
     b6e:	85da                	mv	a1,s6
     b70:	00006517          	auipc	a0,0x6
     b74:	98050513          	addi	a0,a0,-1664 # 64f0 <malloc+0x530>
     b78:	00005097          	auipc	ra,0x5
     b7c:	38a080e7          	jalr	906(ra) # 5f02 <printf>
     b80:	4505                	li	a0,1
     b82:	00005097          	auipc	ra,0x5
     b86:	fe0080e7          	jalr	-32(ra) # 5b62 <exit>

0000000000000b8a <writebig>:
     b8a:	7139                	addi	sp,sp,-64
     b8c:	fc06                	sd	ra,56(sp)
     b8e:	f822                	sd	s0,48(sp)
     b90:	f426                	sd	s1,40(sp)
     b92:	f04a                	sd	s2,32(sp)
     b94:	ec4e                	sd	s3,24(sp)
     b96:	e852                	sd	s4,16(sp)
     b98:	e456                	sd	s5,8(sp)
     b9a:	0080                	addi	s0,sp,64
     b9c:	8aaa                	mv	s5,a0
     b9e:	20200593          	li	a1,514
     ba2:	00006517          	auipc	a0,0x6
     ba6:	96e50513          	addi	a0,a0,-1682 # 6510 <malloc+0x550>
     baa:	00005097          	auipc	ra,0x5
     bae:	ff8080e7          	jalr	-8(ra) # 5ba2 <open>
     bb2:	89aa                	mv	s3,a0
     bb4:	4481                	li	s1,0
     bb6:	0000c917          	auipc	s2,0xc
     bba:	0b290913          	addi	s2,s2,178 # cc68 <buf>
     bbe:	10c00a13          	li	s4,268
     bc2:	06054c63          	bltz	a0,c3a <writebig+0xb0>
     bc6:	00992023          	sw	s1,0(s2)
     bca:	40000613          	li	a2,1024
     bce:	85ca                	mv	a1,s2
     bd0:	854e                	mv	a0,s3
     bd2:	00005097          	auipc	ra,0x5
     bd6:	fb0080e7          	jalr	-80(ra) # 5b82 <write>
     bda:	40000793          	li	a5,1024
     bde:	06f51c63          	bne	a0,a5,c56 <writebig+0xcc>
     be2:	2485                	addiw	s1,s1,1
     be4:	ff4491e3          	bne	s1,s4,bc6 <writebig+0x3c>
     be8:	854e                	mv	a0,s3
     bea:	00005097          	auipc	ra,0x5
     bee:	fa0080e7          	jalr	-96(ra) # 5b8a <close>
     bf2:	4581                	li	a1,0
     bf4:	00006517          	auipc	a0,0x6
     bf8:	91c50513          	addi	a0,a0,-1764 # 6510 <malloc+0x550>
     bfc:	00005097          	auipc	ra,0x5
     c00:	fa6080e7          	jalr	-90(ra) # 5ba2 <open>
     c04:	89aa                	mv	s3,a0
     c06:	4481                	li	s1,0
     c08:	0000c917          	auipc	s2,0xc
     c0c:	06090913          	addi	s2,s2,96 # cc68 <buf>
     c10:	06054263          	bltz	a0,c74 <writebig+0xea>
     c14:	40000613          	li	a2,1024
     c18:	85ca                	mv	a1,s2
     c1a:	854e                	mv	a0,s3
     c1c:	00005097          	auipc	ra,0x5
     c20:	f5e080e7          	jalr	-162(ra) # 5b7a <read>
     c24:	c535                	beqz	a0,c90 <writebig+0x106>
     c26:	40000793          	li	a5,1024
     c2a:	0af51f63          	bne	a0,a5,ce8 <writebig+0x15e>
     c2e:	00092683          	lw	a3,0(s2)
     c32:	0c969a63          	bne	a3,s1,d06 <writebig+0x17c>
     c36:	2485                	addiw	s1,s1,1
     c38:	bff1                	j	c14 <writebig+0x8a>
     c3a:	85d6                	mv	a1,s5
     c3c:	00006517          	auipc	a0,0x6
     c40:	8dc50513          	addi	a0,a0,-1828 # 6518 <malloc+0x558>
     c44:	00005097          	auipc	ra,0x5
     c48:	2be080e7          	jalr	702(ra) # 5f02 <printf>
     c4c:	4505                	li	a0,1
     c4e:	00005097          	auipc	ra,0x5
     c52:	f14080e7          	jalr	-236(ra) # 5b62 <exit>
     c56:	8626                	mv	a2,s1
     c58:	85d6                	mv	a1,s5
     c5a:	00006517          	auipc	a0,0x6
     c5e:	8de50513          	addi	a0,a0,-1826 # 6538 <malloc+0x578>
     c62:	00005097          	auipc	ra,0x5
     c66:	2a0080e7          	jalr	672(ra) # 5f02 <printf>
     c6a:	4505                	li	a0,1
     c6c:	00005097          	auipc	ra,0x5
     c70:	ef6080e7          	jalr	-266(ra) # 5b62 <exit>
     c74:	85d6                	mv	a1,s5
     c76:	00006517          	auipc	a0,0x6
     c7a:	8ea50513          	addi	a0,a0,-1814 # 6560 <malloc+0x5a0>
     c7e:	00005097          	auipc	ra,0x5
     c82:	284080e7          	jalr	644(ra) # 5f02 <printf>
     c86:	4505                	li	a0,1
     c88:	00005097          	auipc	ra,0x5
     c8c:	eda080e7          	jalr	-294(ra) # 5b62 <exit>
     c90:	10b00793          	li	a5,267
     c94:	02f48a63          	beq	s1,a5,cc8 <writebig+0x13e>
     c98:	854e                	mv	a0,s3
     c9a:	00005097          	auipc	ra,0x5
     c9e:	ef0080e7          	jalr	-272(ra) # 5b8a <close>
     ca2:	00006517          	auipc	a0,0x6
     ca6:	86e50513          	addi	a0,a0,-1938 # 6510 <malloc+0x550>
     caa:	00005097          	auipc	ra,0x5
     cae:	f08080e7          	jalr	-248(ra) # 5bb2 <unlink>
     cb2:	06054963          	bltz	a0,d24 <writebig+0x19a>
     cb6:	70e2                	ld	ra,56(sp)
     cb8:	7442                	ld	s0,48(sp)
     cba:	74a2                	ld	s1,40(sp)
     cbc:	7902                	ld	s2,32(sp)
     cbe:	69e2                	ld	s3,24(sp)
     cc0:	6a42                	ld	s4,16(sp)
     cc2:	6aa2                	ld	s5,8(sp)
     cc4:	6121                	addi	sp,sp,64
     cc6:	8082                	ret
     cc8:	10b00613          	li	a2,267
     ccc:	85d6                	mv	a1,s5
     cce:	00006517          	auipc	a0,0x6
     cd2:	8b250513          	addi	a0,a0,-1870 # 6580 <malloc+0x5c0>
     cd6:	00005097          	auipc	ra,0x5
     cda:	22c080e7          	jalr	556(ra) # 5f02 <printf>
     cde:	4505                	li	a0,1
     ce0:	00005097          	auipc	ra,0x5
     ce4:	e82080e7          	jalr	-382(ra) # 5b62 <exit>
     ce8:	862a                	mv	a2,a0
     cea:	85d6                	mv	a1,s5
     cec:	00006517          	auipc	a0,0x6
     cf0:	8bc50513          	addi	a0,a0,-1860 # 65a8 <malloc+0x5e8>
     cf4:	00005097          	auipc	ra,0x5
     cf8:	20e080e7          	jalr	526(ra) # 5f02 <printf>
     cfc:	4505                	li	a0,1
     cfe:	00005097          	auipc	ra,0x5
     d02:	e64080e7          	jalr	-412(ra) # 5b62 <exit>
     d06:	8626                	mv	a2,s1
     d08:	85d6                	mv	a1,s5
     d0a:	00006517          	auipc	a0,0x6
     d0e:	8b650513          	addi	a0,a0,-1866 # 65c0 <malloc+0x600>
     d12:	00005097          	auipc	ra,0x5
     d16:	1f0080e7          	jalr	496(ra) # 5f02 <printf>
     d1a:	4505                	li	a0,1
     d1c:	00005097          	auipc	ra,0x5
     d20:	e46080e7          	jalr	-442(ra) # 5b62 <exit>
     d24:	85d6                	mv	a1,s5
     d26:	00006517          	auipc	a0,0x6
     d2a:	8c250513          	addi	a0,a0,-1854 # 65e8 <malloc+0x628>
     d2e:	00005097          	auipc	ra,0x5
     d32:	1d4080e7          	jalr	468(ra) # 5f02 <printf>
     d36:	4505                	li	a0,1
     d38:	00005097          	auipc	ra,0x5
     d3c:	e2a080e7          	jalr	-470(ra) # 5b62 <exit>

0000000000000d40 <unlinkread>:
     d40:	7179                	addi	sp,sp,-48
     d42:	f406                	sd	ra,40(sp)
     d44:	f022                	sd	s0,32(sp)
     d46:	ec26                	sd	s1,24(sp)
     d48:	e84a                	sd	s2,16(sp)
     d4a:	e44e                	sd	s3,8(sp)
     d4c:	1800                	addi	s0,sp,48
     d4e:	89aa                	mv	s3,a0
     d50:	20200593          	li	a1,514
     d54:	00006517          	auipc	a0,0x6
     d58:	8ac50513          	addi	a0,a0,-1876 # 6600 <malloc+0x640>
     d5c:	00005097          	auipc	ra,0x5
     d60:	e46080e7          	jalr	-442(ra) # 5ba2 <open>
     d64:	0e054563          	bltz	a0,e4e <unlinkread+0x10e>
     d68:	84aa                	mv	s1,a0
     d6a:	4615                	li	a2,5
     d6c:	00006597          	auipc	a1,0x6
     d70:	8c458593          	addi	a1,a1,-1852 # 6630 <malloc+0x670>
     d74:	00005097          	auipc	ra,0x5
     d78:	e0e080e7          	jalr	-498(ra) # 5b82 <write>
     d7c:	8526                	mv	a0,s1
     d7e:	00005097          	auipc	ra,0x5
     d82:	e0c080e7          	jalr	-500(ra) # 5b8a <close>
     d86:	4589                	li	a1,2
     d88:	00006517          	auipc	a0,0x6
     d8c:	87850513          	addi	a0,a0,-1928 # 6600 <malloc+0x640>
     d90:	00005097          	auipc	ra,0x5
     d94:	e12080e7          	jalr	-494(ra) # 5ba2 <open>
     d98:	84aa                	mv	s1,a0
     d9a:	0c054863          	bltz	a0,e6a <unlinkread+0x12a>
     d9e:	00006517          	auipc	a0,0x6
     da2:	86250513          	addi	a0,a0,-1950 # 6600 <malloc+0x640>
     da6:	00005097          	auipc	ra,0x5
     daa:	e0c080e7          	jalr	-500(ra) # 5bb2 <unlink>
     dae:	ed61                	bnez	a0,e86 <unlinkread+0x146>
     db0:	20200593          	li	a1,514
     db4:	00006517          	auipc	a0,0x6
     db8:	84c50513          	addi	a0,a0,-1972 # 6600 <malloc+0x640>
     dbc:	00005097          	auipc	ra,0x5
     dc0:	de6080e7          	jalr	-538(ra) # 5ba2 <open>
     dc4:	892a                	mv	s2,a0
     dc6:	460d                	li	a2,3
     dc8:	00006597          	auipc	a1,0x6
     dcc:	8b058593          	addi	a1,a1,-1872 # 6678 <malloc+0x6b8>
     dd0:	00005097          	auipc	ra,0x5
     dd4:	db2080e7          	jalr	-590(ra) # 5b82 <write>
     dd8:	854a                	mv	a0,s2
     dda:	00005097          	auipc	ra,0x5
     dde:	db0080e7          	jalr	-592(ra) # 5b8a <close>
     de2:	660d                	lui	a2,0x3
     de4:	0000c597          	auipc	a1,0xc
     de8:	e8458593          	addi	a1,a1,-380 # cc68 <buf>
     dec:	8526                	mv	a0,s1
     dee:	00005097          	auipc	ra,0x5
     df2:	d8c080e7          	jalr	-628(ra) # 5b7a <read>
     df6:	4795                	li	a5,5
     df8:	0af51563          	bne	a0,a5,ea2 <unlinkread+0x162>
     dfc:	0000c717          	auipc	a4,0xc
     e00:	e6c74703          	lbu	a4,-404(a4) # cc68 <buf>
     e04:	06800793          	li	a5,104
     e08:	0af71b63          	bne	a4,a5,ebe <unlinkread+0x17e>
     e0c:	4629                	li	a2,10
     e0e:	0000c597          	auipc	a1,0xc
     e12:	e5a58593          	addi	a1,a1,-422 # cc68 <buf>
     e16:	8526                	mv	a0,s1
     e18:	00005097          	auipc	ra,0x5
     e1c:	d6a080e7          	jalr	-662(ra) # 5b82 <write>
     e20:	47a9                	li	a5,10
     e22:	0af51c63          	bne	a0,a5,eda <unlinkread+0x19a>
     e26:	8526                	mv	a0,s1
     e28:	00005097          	auipc	ra,0x5
     e2c:	d62080e7          	jalr	-670(ra) # 5b8a <close>
     e30:	00005517          	auipc	a0,0x5
     e34:	7d050513          	addi	a0,a0,2000 # 6600 <malloc+0x640>
     e38:	00005097          	auipc	ra,0x5
     e3c:	d7a080e7          	jalr	-646(ra) # 5bb2 <unlink>
     e40:	70a2                	ld	ra,40(sp)
     e42:	7402                	ld	s0,32(sp)
     e44:	64e2                	ld	s1,24(sp)
     e46:	6942                	ld	s2,16(sp)
     e48:	69a2                	ld	s3,8(sp)
     e4a:	6145                	addi	sp,sp,48
     e4c:	8082                	ret
     e4e:	85ce                	mv	a1,s3
     e50:	00005517          	auipc	a0,0x5
     e54:	7c050513          	addi	a0,a0,1984 # 6610 <malloc+0x650>
     e58:	00005097          	auipc	ra,0x5
     e5c:	0aa080e7          	jalr	170(ra) # 5f02 <printf>
     e60:	4505                	li	a0,1
     e62:	00005097          	auipc	ra,0x5
     e66:	d00080e7          	jalr	-768(ra) # 5b62 <exit>
     e6a:	85ce                	mv	a1,s3
     e6c:	00005517          	auipc	a0,0x5
     e70:	7cc50513          	addi	a0,a0,1996 # 6638 <malloc+0x678>
     e74:	00005097          	auipc	ra,0x5
     e78:	08e080e7          	jalr	142(ra) # 5f02 <printf>
     e7c:	4505                	li	a0,1
     e7e:	00005097          	auipc	ra,0x5
     e82:	ce4080e7          	jalr	-796(ra) # 5b62 <exit>
     e86:	85ce                	mv	a1,s3
     e88:	00005517          	auipc	a0,0x5
     e8c:	7d050513          	addi	a0,a0,2000 # 6658 <malloc+0x698>
     e90:	00005097          	auipc	ra,0x5
     e94:	072080e7          	jalr	114(ra) # 5f02 <printf>
     e98:	4505                	li	a0,1
     e9a:	00005097          	auipc	ra,0x5
     e9e:	cc8080e7          	jalr	-824(ra) # 5b62 <exit>
     ea2:	85ce                	mv	a1,s3
     ea4:	00005517          	auipc	a0,0x5
     ea8:	7dc50513          	addi	a0,a0,2012 # 6680 <malloc+0x6c0>
     eac:	00005097          	auipc	ra,0x5
     eb0:	056080e7          	jalr	86(ra) # 5f02 <printf>
     eb4:	4505                	li	a0,1
     eb6:	00005097          	auipc	ra,0x5
     eba:	cac080e7          	jalr	-852(ra) # 5b62 <exit>
     ebe:	85ce                	mv	a1,s3
     ec0:	00005517          	auipc	a0,0x5
     ec4:	7e050513          	addi	a0,a0,2016 # 66a0 <malloc+0x6e0>
     ec8:	00005097          	auipc	ra,0x5
     ecc:	03a080e7          	jalr	58(ra) # 5f02 <printf>
     ed0:	4505                	li	a0,1
     ed2:	00005097          	auipc	ra,0x5
     ed6:	c90080e7          	jalr	-880(ra) # 5b62 <exit>
     eda:	85ce                	mv	a1,s3
     edc:	00005517          	auipc	a0,0x5
     ee0:	7e450513          	addi	a0,a0,2020 # 66c0 <malloc+0x700>
     ee4:	00005097          	auipc	ra,0x5
     ee8:	01e080e7          	jalr	30(ra) # 5f02 <printf>
     eec:	4505                	li	a0,1
     eee:	00005097          	auipc	ra,0x5
     ef2:	c74080e7          	jalr	-908(ra) # 5b62 <exit>

0000000000000ef6 <linktest>:
     ef6:	1101                	addi	sp,sp,-32
     ef8:	ec06                	sd	ra,24(sp)
     efa:	e822                	sd	s0,16(sp)
     efc:	e426                	sd	s1,8(sp)
     efe:	e04a                	sd	s2,0(sp)
     f00:	1000                	addi	s0,sp,32
     f02:	892a                	mv	s2,a0
     f04:	00005517          	auipc	a0,0x5
     f08:	7dc50513          	addi	a0,a0,2012 # 66e0 <malloc+0x720>
     f0c:	00005097          	auipc	ra,0x5
     f10:	ca6080e7          	jalr	-858(ra) # 5bb2 <unlink>
     f14:	00005517          	auipc	a0,0x5
     f18:	7d450513          	addi	a0,a0,2004 # 66e8 <malloc+0x728>
     f1c:	00005097          	auipc	ra,0x5
     f20:	c96080e7          	jalr	-874(ra) # 5bb2 <unlink>
     f24:	20200593          	li	a1,514
     f28:	00005517          	auipc	a0,0x5
     f2c:	7b850513          	addi	a0,a0,1976 # 66e0 <malloc+0x720>
     f30:	00005097          	auipc	ra,0x5
     f34:	c72080e7          	jalr	-910(ra) # 5ba2 <open>
     f38:	10054763          	bltz	a0,1046 <linktest+0x150>
     f3c:	84aa                	mv	s1,a0
     f3e:	4615                	li	a2,5
     f40:	00005597          	auipc	a1,0x5
     f44:	6f058593          	addi	a1,a1,1776 # 6630 <malloc+0x670>
     f48:	00005097          	auipc	ra,0x5
     f4c:	c3a080e7          	jalr	-966(ra) # 5b82 <write>
     f50:	4795                	li	a5,5
     f52:	10f51863          	bne	a0,a5,1062 <linktest+0x16c>
     f56:	8526                	mv	a0,s1
     f58:	00005097          	auipc	ra,0x5
     f5c:	c32080e7          	jalr	-974(ra) # 5b8a <close>
     f60:	00005597          	auipc	a1,0x5
     f64:	78858593          	addi	a1,a1,1928 # 66e8 <malloc+0x728>
     f68:	00005517          	auipc	a0,0x5
     f6c:	77850513          	addi	a0,a0,1912 # 66e0 <malloc+0x720>
     f70:	00005097          	auipc	ra,0x5
     f74:	c52080e7          	jalr	-942(ra) # 5bc2 <link>
     f78:	10054363          	bltz	a0,107e <linktest+0x188>
     f7c:	00005517          	auipc	a0,0x5
     f80:	76450513          	addi	a0,a0,1892 # 66e0 <malloc+0x720>
     f84:	00005097          	auipc	ra,0x5
     f88:	c2e080e7          	jalr	-978(ra) # 5bb2 <unlink>
     f8c:	4581                	li	a1,0
     f8e:	00005517          	auipc	a0,0x5
     f92:	75250513          	addi	a0,a0,1874 # 66e0 <malloc+0x720>
     f96:	00005097          	auipc	ra,0x5
     f9a:	c0c080e7          	jalr	-1012(ra) # 5ba2 <open>
     f9e:	0e055e63          	bgez	a0,109a <linktest+0x1a4>
     fa2:	4581                	li	a1,0
     fa4:	00005517          	auipc	a0,0x5
     fa8:	74450513          	addi	a0,a0,1860 # 66e8 <malloc+0x728>
     fac:	00005097          	auipc	ra,0x5
     fb0:	bf6080e7          	jalr	-1034(ra) # 5ba2 <open>
     fb4:	84aa                	mv	s1,a0
     fb6:	10054063          	bltz	a0,10b6 <linktest+0x1c0>
     fba:	660d                	lui	a2,0x3
     fbc:	0000c597          	auipc	a1,0xc
     fc0:	cac58593          	addi	a1,a1,-852 # cc68 <buf>
     fc4:	00005097          	auipc	ra,0x5
     fc8:	bb6080e7          	jalr	-1098(ra) # 5b7a <read>
     fcc:	4795                	li	a5,5
     fce:	10f51263          	bne	a0,a5,10d2 <linktest+0x1dc>
     fd2:	8526                	mv	a0,s1
     fd4:	00005097          	auipc	ra,0x5
     fd8:	bb6080e7          	jalr	-1098(ra) # 5b8a <close>
     fdc:	00005597          	auipc	a1,0x5
     fe0:	70c58593          	addi	a1,a1,1804 # 66e8 <malloc+0x728>
     fe4:	852e                	mv	a0,a1
     fe6:	00005097          	auipc	ra,0x5
     fea:	bdc080e7          	jalr	-1060(ra) # 5bc2 <link>
     fee:	10055063          	bgez	a0,10ee <linktest+0x1f8>
     ff2:	00005517          	auipc	a0,0x5
     ff6:	6f650513          	addi	a0,a0,1782 # 66e8 <malloc+0x728>
     ffa:	00005097          	auipc	ra,0x5
     ffe:	bb8080e7          	jalr	-1096(ra) # 5bb2 <unlink>
    1002:	00005597          	auipc	a1,0x5
    1006:	6de58593          	addi	a1,a1,1758 # 66e0 <malloc+0x720>
    100a:	00005517          	auipc	a0,0x5
    100e:	6de50513          	addi	a0,a0,1758 # 66e8 <malloc+0x728>
    1012:	00005097          	auipc	ra,0x5
    1016:	bb0080e7          	jalr	-1104(ra) # 5bc2 <link>
    101a:	0e055863          	bgez	a0,110a <linktest+0x214>
    101e:	00005597          	auipc	a1,0x5
    1022:	6c258593          	addi	a1,a1,1730 # 66e0 <malloc+0x720>
    1026:	00005517          	auipc	a0,0x5
    102a:	7ca50513          	addi	a0,a0,1994 # 67f0 <malloc+0x830>
    102e:	00005097          	auipc	ra,0x5
    1032:	b94080e7          	jalr	-1132(ra) # 5bc2 <link>
    1036:	0e055863          	bgez	a0,1126 <linktest+0x230>
    103a:	60e2                	ld	ra,24(sp)
    103c:	6442                	ld	s0,16(sp)
    103e:	64a2                	ld	s1,8(sp)
    1040:	6902                	ld	s2,0(sp)
    1042:	6105                	addi	sp,sp,32
    1044:	8082                	ret
    1046:	85ca                	mv	a1,s2
    1048:	00005517          	auipc	a0,0x5
    104c:	6a850513          	addi	a0,a0,1704 # 66f0 <malloc+0x730>
    1050:	00005097          	auipc	ra,0x5
    1054:	eb2080e7          	jalr	-334(ra) # 5f02 <printf>
    1058:	4505                	li	a0,1
    105a:	00005097          	auipc	ra,0x5
    105e:	b08080e7          	jalr	-1272(ra) # 5b62 <exit>
    1062:	85ca                	mv	a1,s2
    1064:	00005517          	auipc	a0,0x5
    1068:	6a450513          	addi	a0,a0,1700 # 6708 <malloc+0x748>
    106c:	00005097          	auipc	ra,0x5
    1070:	e96080e7          	jalr	-362(ra) # 5f02 <printf>
    1074:	4505                	li	a0,1
    1076:	00005097          	auipc	ra,0x5
    107a:	aec080e7          	jalr	-1300(ra) # 5b62 <exit>
    107e:	85ca                	mv	a1,s2
    1080:	00005517          	auipc	a0,0x5
    1084:	6a050513          	addi	a0,a0,1696 # 6720 <malloc+0x760>
    1088:	00005097          	auipc	ra,0x5
    108c:	e7a080e7          	jalr	-390(ra) # 5f02 <printf>
    1090:	4505                	li	a0,1
    1092:	00005097          	auipc	ra,0x5
    1096:	ad0080e7          	jalr	-1328(ra) # 5b62 <exit>
    109a:	85ca                	mv	a1,s2
    109c:	00005517          	auipc	a0,0x5
    10a0:	6a450513          	addi	a0,a0,1700 # 6740 <malloc+0x780>
    10a4:	00005097          	auipc	ra,0x5
    10a8:	e5e080e7          	jalr	-418(ra) # 5f02 <printf>
    10ac:	4505                	li	a0,1
    10ae:	00005097          	auipc	ra,0x5
    10b2:	ab4080e7          	jalr	-1356(ra) # 5b62 <exit>
    10b6:	85ca                	mv	a1,s2
    10b8:	00005517          	auipc	a0,0x5
    10bc:	6b850513          	addi	a0,a0,1720 # 6770 <malloc+0x7b0>
    10c0:	00005097          	auipc	ra,0x5
    10c4:	e42080e7          	jalr	-446(ra) # 5f02 <printf>
    10c8:	4505                	li	a0,1
    10ca:	00005097          	auipc	ra,0x5
    10ce:	a98080e7          	jalr	-1384(ra) # 5b62 <exit>
    10d2:	85ca                	mv	a1,s2
    10d4:	00005517          	auipc	a0,0x5
    10d8:	6b450513          	addi	a0,a0,1716 # 6788 <malloc+0x7c8>
    10dc:	00005097          	auipc	ra,0x5
    10e0:	e26080e7          	jalr	-474(ra) # 5f02 <printf>
    10e4:	4505                	li	a0,1
    10e6:	00005097          	auipc	ra,0x5
    10ea:	a7c080e7          	jalr	-1412(ra) # 5b62 <exit>
    10ee:	85ca                	mv	a1,s2
    10f0:	00005517          	auipc	a0,0x5
    10f4:	6b050513          	addi	a0,a0,1712 # 67a0 <malloc+0x7e0>
    10f8:	00005097          	auipc	ra,0x5
    10fc:	e0a080e7          	jalr	-502(ra) # 5f02 <printf>
    1100:	4505                	li	a0,1
    1102:	00005097          	auipc	ra,0x5
    1106:	a60080e7          	jalr	-1440(ra) # 5b62 <exit>
    110a:	85ca                	mv	a1,s2
    110c:	00005517          	auipc	a0,0x5
    1110:	6bc50513          	addi	a0,a0,1724 # 67c8 <malloc+0x808>
    1114:	00005097          	auipc	ra,0x5
    1118:	dee080e7          	jalr	-530(ra) # 5f02 <printf>
    111c:	4505                	li	a0,1
    111e:	00005097          	auipc	ra,0x5
    1122:	a44080e7          	jalr	-1468(ra) # 5b62 <exit>
    1126:	85ca                	mv	a1,s2
    1128:	00005517          	auipc	a0,0x5
    112c:	6d050513          	addi	a0,a0,1744 # 67f8 <malloc+0x838>
    1130:	00005097          	auipc	ra,0x5
    1134:	dd2080e7          	jalr	-558(ra) # 5f02 <printf>
    1138:	4505                	li	a0,1
    113a:	00005097          	auipc	ra,0x5
    113e:	a28080e7          	jalr	-1496(ra) # 5b62 <exit>

0000000000001142 <validatetest>:
    1142:	7139                	addi	sp,sp,-64
    1144:	fc06                	sd	ra,56(sp)
    1146:	f822                	sd	s0,48(sp)
    1148:	f426                	sd	s1,40(sp)
    114a:	f04a                	sd	s2,32(sp)
    114c:	ec4e                	sd	s3,24(sp)
    114e:	e852                	sd	s4,16(sp)
    1150:	e456                	sd	s5,8(sp)
    1152:	e05a                	sd	s6,0(sp)
    1154:	0080                	addi	s0,sp,64
    1156:	8b2a                	mv	s6,a0
    1158:	4481                	li	s1,0
    115a:	00005997          	auipc	s3,0x5
    115e:	6be98993          	addi	s3,s3,1726 # 6818 <malloc+0x858>
    1162:	597d                	li	s2,-1
    1164:	6a85                	lui	s5,0x1
    1166:	00114a37          	lui	s4,0x114
    116a:	85a6                	mv	a1,s1
    116c:	854e                	mv	a0,s3
    116e:	00005097          	auipc	ra,0x5
    1172:	a54080e7          	jalr	-1452(ra) # 5bc2 <link>
    1176:	01251f63          	bne	a0,s2,1194 <validatetest+0x52>
    117a:	94d6                	add	s1,s1,s5
    117c:	ff4497e3          	bne	s1,s4,116a <validatetest+0x28>
    1180:	70e2                	ld	ra,56(sp)
    1182:	7442                	ld	s0,48(sp)
    1184:	74a2                	ld	s1,40(sp)
    1186:	7902                	ld	s2,32(sp)
    1188:	69e2                	ld	s3,24(sp)
    118a:	6a42                	ld	s4,16(sp)
    118c:	6aa2                	ld	s5,8(sp)
    118e:	6b02                	ld	s6,0(sp)
    1190:	6121                	addi	sp,sp,64
    1192:	8082                	ret
    1194:	85da                	mv	a1,s6
    1196:	00005517          	auipc	a0,0x5
    119a:	69250513          	addi	a0,a0,1682 # 6828 <malloc+0x868>
    119e:	00005097          	auipc	ra,0x5
    11a2:	d64080e7          	jalr	-668(ra) # 5f02 <printf>
    11a6:	4505                	li	a0,1
    11a8:	00005097          	auipc	ra,0x5
    11ac:	9ba080e7          	jalr	-1606(ra) # 5b62 <exit>

00000000000011b0 <bigdir>:
    11b0:	715d                	addi	sp,sp,-80
    11b2:	e486                	sd	ra,72(sp)
    11b4:	e0a2                	sd	s0,64(sp)
    11b6:	fc26                	sd	s1,56(sp)
    11b8:	f84a                	sd	s2,48(sp)
    11ba:	f44e                	sd	s3,40(sp)
    11bc:	f052                	sd	s4,32(sp)
    11be:	ec56                	sd	s5,24(sp)
    11c0:	e85a                	sd	s6,16(sp)
    11c2:	0880                	addi	s0,sp,80
    11c4:	89aa                	mv	s3,a0
    11c6:	00005517          	auipc	a0,0x5
    11ca:	68250513          	addi	a0,a0,1666 # 6848 <malloc+0x888>
    11ce:	00005097          	auipc	ra,0x5
    11d2:	9e4080e7          	jalr	-1564(ra) # 5bb2 <unlink>
    11d6:	20000593          	li	a1,512
    11da:	00005517          	auipc	a0,0x5
    11de:	66e50513          	addi	a0,a0,1646 # 6848 <malloc+0x888>
    11e2:	00005097          	auipc	ra,0x5
    11e6:	9c0080e7          	jalr	-1600(ra) # 5ba2 <open>
    11ea:	0c054963          	bltz	a0,12bc <bigdir+0x10c>
    11ee:	00005097          	auipc	ra,0x5
    11f2:	99c080e7          	jalr	-1636(ra) # 5b8a <close>
    11f6:	4901                	li	s2,0
    11f8:	07800a93          	li	s5,120
    11fc:	00005a17          	auipc	s4,0x5
    1200:	64ca0a13          	addi	s4,s4,1612 # 6848 <malloc+0x888>
    1204:	1f400b13          	li	s6,500
    1208:	fb540823          	sb	s5,-80(s0)
    120c:	41f9579b          	sraiw	a5,s2,0x1f
    1210:	01a7d71b          	srliw	a4,a5,0x1a
    1214:	012707bb          	addw	a5,a4,s2
    1218:	4067d69b          	sraiw	a3,a5,0x6
    121c:	0306869b          	addiw	a3,a3,48
    1220:	fad408a3          	sb	a3,-79(s0)
    1224:	03f7f793          	andi	a5,a5,63
    1228:	9f99                	subw	a5,a5,a4
    122a:	0307879b          	addiw	a5,a5,48
    122e:	faf40923          	sb	a5,-78(s0)
    1232:	fa0409a3          	sb	zero,-77(s0)
    1236:	fb040593          	addi	a1,s0,-80
    123a:	8552                	mv	a0,s4
    123c:	00005097          	auipc	ra,0x5
    1240:	986080e7          	jalr	-1658(ra) # 5bc2 <link>
    1244:	84aa                	mv	s1,a0
    1246:	e949                	bnez	a0,12d8 <bigdir+0x128>
    1248:	2905                	addiw	s2,s2,1
    124a:	fb691fe3          	bne	s2,s6,1208 <bigdir+0x58>
    124e:	00005517          	auipc	a0,0x5
    1252:	5fa50513          	addi	a0,a0,1530 # 6848 <malloc+0x888>
    1256:	00005097          	auipc	ra,0x5
    125a:	95c080e7          	jalr	-1700(ra) # 5bb2 <unlink>
    125e:	07800913          	li	s2,120
    1262:	1f400a13          	li	s4,500
    1266:	fb240823          	sb	s2,-80(s0)
    126a:	41f4d79b          	sraiw	a5,s1,0x1f
    126e:	01a7d71b          	srliw	a4,a5,0x1a
    1272:	009707bb          	addw	a5,a4,s1
    1276:	4067d69b          	sraiw	a3,a5,0x6
    127a:	0306869b          	addiw	a3,a3,48
    127e:	fad408a3          	sb	a3,-79(s0)
    1282:	03f7f793          	andi	a5,a5,63
    1286:	9f99                	subw	a5,a5,a4
    1288:	0307879b          	addiw	a5,a5,48
    128c:	faf40923          	sb	a5,-78(s0)
    1290:	fa0409a3          	sb	zero,-77(s0)
    1294:	fb040513          	addi	a0,s0,-80
    1298:	00005097          	auipc	ra,0x5
    129c:	91a080e7          	jalr	-1766(ra) # 5bb2 <unlink>
    12a0:	ed21                	bnez	a0,12f8 <bigdir+0x148>
    12a2:	2485                	addiw	s1,s1,1
    12a4:	fd4491e3          	bne	s1,s4,1266 <bigdir+0xb6>
    12a8:	60a6                	ld	ra,72(sp)
    12aa:	6406                	ld	s0,64(sp)
    12ac:	74e2                	ld	s1,56(sp)
    12ae:	7942                	ld	s2,48(sp)
    12b0:	79a2                	ld	s3,40(sp)
    12b2:	7a02                	ld	s4,32(sp)
    12b4:	6ae2                	ld	s5,24(sp)
    12b6:	6b42                	ld	s6,16(sp)
    12b8:	6161                	addi	sp,sp,80
    12ba:	8082                	ret
    12bc:	85ce                	mv	a1,s3
    12be:	00005517          	auipc	a0,0x5
    12c2:	59250513          	addi	a0,a0,1426 # 6850 <malloc+0x890>
    12c6:	00005097          	auipc	ra,0x5
    12ca:	c3c080e7          	jalr	-964(ra) # 5f02 <printf>
    12ce:	4505                	li	a0,1
    12d0:	00005097          	auipc	ra,0x5
    12d4:	892080e7          	jalr	-1902(ra) # 5b62 <exit>
    12d8:	fb040613          	addi	a2,s0,-80
    12dc:	85ce                	mv	a1,s3
    12de:	00005517          	auipc	a0,0x5
    12e2:	59250513          	addi	a0,a0,1426 # 6870 <malloc+0x8b0>
    12e6:	00005097          	auipc	ra,0x5
    12ea:	c1c080e7          	jalr	-996(ra) # 5f02 <printf>
    12ee:	4505                	li	a0,1
    12f0:	00005097          	auipc	ra,0x5
    12f4:	872080e7          	jalr	-1934(ra) # 5b62 <exit>
    12f8:	85ce                	mv	a1,s3
    12fa:	00005517          	auipc	a0,0x5
    12fe:	59650513          	addi	a0,a0,1430 # 6890 <malloc+0x8d0>
    1302:	00005097          	auipc	ra,0x5
    1306:	c00080e7          	jalr	-1024(ra) # 5f02 <printf>
    130a:	4505                	li	a0,1
    130c:	00005097          	auipc	ra,0x5
    1310:	856080e7          	jalr	-1962(ra) # 5b62 <exit>

0000000000001314 <pgbug>:
    1314:	7179                	addi	sp,sp,-48
    1316:	f406                	sd	ra,40(sp)
    1318:	f022                	sd	s0,32(sp)
    131a:	ec26                	sd	s1,24(sp)
    131c:	1800                	addi	s0,sp,48
    131e:	fc043c23          	sd	zero,-40(s0)
    1322:	00008497          	auipc	s1,0x8
    1326:	cde48493          	addi	s1,s1,-802 # 9000 <big>
    132a:	fd840593          	addi	a1,s0,-40
    132e:	6088                	ld	a0,0(s1)
    1330:	00005097          	auipc	ra,0x5
    1334:	86a080e7          	jalr	-1942(ra) # 5b9a <exec>
    1338:	6088                	ld	a0,0(s1)
    133a:	00005097          	auipc	ra,0x5
    133e:	838080e7          	jalr	-1992(ra) # 5b72 <pipe>
    1342:	4501                	li	a0,0
    1344:	00005097          	auipc	ra,0x5
    1348:	81e080e7          	jalr	-2018(ra) # 5b62 <exit>

000000000000134c <badarg>:
    134c:	7139                	addi	sp,sp,-64
    134e:	fc06                	sd	ra,56(sp)
    1350:	f822                	sd	s0,48(sp)
    1352:	f426                	sd	s1,40(sp)
    1354:	f04a                	sd	s2,32(sp)
    1356:	ec4e                	sd	s3,24(sp)
    1358:	0080                	addi	s0,sp,64
    135a:	64b1                	lui	s1,0xc
    135c:	35048493          	addi	s1,s1,848 # c350 <uninit+0x1df8>
    1360:	597d                	li	s2,-1
    1362:	02095913          	srli	s2,s2,0x20
    1366:	00005997          	auipc	s3,0x5
    136a:	da298993          	addi	s3,s3,-606 # 6108 <malloc+0x148>
    136e:	fd243023          	sd	s2,-64(s0)
    1372:	fc043423          	sd	zero,-56(s0)
    1376:	fc040593          	addi	a1,s0,-64
    137a:	854e                	mv	a0,s3
    137c:	00005097          	auipc	ra,0x5
    1380:	81e080e7          	jalr	-2018(ra) # 5b9a <exec>
    1384:	34fd                	addiw	s1,s1,-1
    1386:	f4e5                	bnez	s1,136e <badarg+0x22>
    1388:	4501                	li	a0,0
    138a:	00004097          	auipc	ra,0x4
    138e:	7d8080e7          	jalr	2008(ra) # 5b62 <exit>

0000000000001392 <copyinstr2>:
    1392:	7155                	addi	sp,sp,-208
    1394:	e586                	sd	ra,200(sp)
    1396:	e1a2                	sd	s0,192(sp)
    1398:	0980                	addi	s0,sp,208
    139a:	f6840793          	addi	a5,s0,-152
    139e:	fe840693          	addi	a3,s0,-24
    13a2:	07800713          	li	a4,120
    13a6:	00e78023          	sb	a4,0(a5)
    13aa:	0785                	addi	a5,a5,1
    13ac:	fed79de3          	bne	a5,a3,13a6 <copyinstr2+0x14>
    13b0:	fe040423          	sb	zero,-24(s0)
    13b4:	f6840513          	addi	a0,s0,-152
    13b8:	00004097          	auipc	ra,0x4
    13bc:	7fa080e7          	jalr	2042(ra) # 5bb2 <unlink>
    13c0:	57fd                	li	a5,-1
    13c2:	0ef51063          	bne	a0,a5,14a2 <copyinstr2+0x110>
    13c6:	20100593          	li	a1,513
    13ca:	f6840513          	addi	a0,s0,-152
    13ce:	00004097          	auipc	ra,0x4
    13d2:	7d4080e7          	jalr	2004(ra) # 5ba2 <open>
    13d6:	57fd                	li	a5,-1
    13d8:	0ef51563          	bne	a0,a5,14c2 <copyinstr2+0x130>
    13dc:	f6840593          	addi	a1,s0,-152
    13e0:	852e                	mv	a0,a1
    13e2:	00004097          	auipc	ra,0x4
    13e6:	7e0080e7          	jalr	2016(ra) # 5bc2 <link>
    13ea:	57fd                	li	a5,-1
    13ec:	0ef51b63          	bne	a0,a5,14e2 <copyinstr2+0x150>
    13f0:	00006797          	auipc	a5,0x6
    13f4:	6f878793          	addi	a5,a5,1784 # 7ae8 <malloc+0x1b28>
    13f8:	f4f43c23          	sd	a5,-168(s0)
    13fc:	f6043023          	sd	zero,-160(s0)
    1400:	f5840593          	addi	a1,s0,-168
    1404:	f6840513          	addi	a0,s0,-152
    1408:	00004097          	auipc	ra,0x4
    140c:	792080e7          	jalr	1938(ra) # 5b9a <exec>
    1410:	57fd                	li	a5,-1
    1412:	0ef51963          	bne	a0,a5,1504 <copyinstr2+0x172>
    1416:	00004097          	auipc	ra,0x4
    141a:	744080e7          	jalr	1860(ra) # 5b5a <fork>
    141e:	10054363          	bltz	a0,1524 <copyinstr2+0x192>
    1422:	12051463          	bnez	a0,154a <copyinstr2+0x1b8>
    1426:	00008797          	auipc	a5,0x8
    142a:	12a78793          	addi	a5,a5,298 # 9550 <big.1280>
    142e:	00009697          	auipc	a3,0x9
    1432:	12268693          	addi	a3,a3,290 # a550 <big.1280+0x1000>
    1436:	07800713          	li	a4,120
    143a:	00e78023          	sb	a4,0(a5)
    143e:	0785                	addi	a5,a5,1
    1440:	fed79de3          	bne	a5,a3,143a <copyinstr2+0xa8>
    1444:	00009797          	auipc	a5,0x9
    1448:	10078623          	sb	zero,268(a5) # a550 <big.1280+0x1000>
    144c:	00007797          	auipc	a5,0x7
    1450:	0ac78793          	addi	a5,a5,172 # 84f8 <malloc+0x2538>
    1454:	6390                	ld	a2,0(a5)
    1456:	6794                	ld	a3,8(a5)
    1458:	6b98                	ld	a4,16(a5)
    145a:	6f9c                	ld	a5,24(a5)
    145c:	f2c43823          	sd	a2,-208(s0)
    1460:	f2d43c23          	sd	a3,-200(s0)
    1464:	f4e43023          	sd	a4,-192(s0)
    1468:	f4f43423          	sd	a5,-184(s0)
    146c:	f3040593          	addi	a1,s0,-208
    1470:	00005517          	auipc	a0,0x5
    1474:	c9850513          	addi	a0,a0,-872 # 6108 <malloc+0x148>
    1478:	00004097          	auipc	ra,0x4
    147c:	722080e7          	jalr	1826(ra) # 5b9a <exec>
    1480:	57fd                	li	a5,-1
    1482:	0af50e63          	beq	a0,a5,153e <copyinstr2+0x1ac>
    1486:	55fd                	li	a1,-1
    1488:	00005517          	auipc	a0,0x5
    148c:	4b050513          	addi	a0,a0,1200 # 6938 <malloc+0x978>
    1490:	00005097          	auipc	ra,0x5
    1494:	a72080e7          	jalr	-1422(ra) # 5f02 <printf>
    1498:	4505                	li	a0,1
    149a:	00004097          	auipc	ra,0x4
    149e:	6c8080e7          	jalr	1736(ra) # 5b62 <exit>
    14a2:	862a                	mv	a2,a0
    14a4:	f6840593          	addi	a1,s0,-152
    14a8:	00005517          	auipc	a0,0x5
    14ac:	40850513          	addi	a0,a0,1032 # 68b0 <malloc+0x8f0>
    14b0:	00005097          	auipc	ra,0x5
    14b4:	a52080e7          	jalr	-1454(ra) # 5f02 <printf>
    14b8:	4505                	li	a0,1
    14ba:	00004097          	auipc	ra,0x4
    14be:	6a8080e7          	jalr	1704(ra) # 5b62 <exit>
    14c2:	862a                	mv	a2,a0
    14c4:	f6840593          	addi	a1,s0,-152
    14c8:	00005517          	auipc	a0,0x5
    14cc:	40850513          	addi	a0,a0,1032 # 68d0 <malloc+0x910>
    14d0:	00005097          	auipc	ra,0x5
    14d4:	a32080e7          	jalr	-1486(ra) # 5f02 <printf>
    14d8:	4505                	li	a0,1
    14da:	00004097          	auipc	ra,0x4
    14de:	688080e7          	jalr	1672(ra) # 5b62 <exit>
    14e2:	86aa                	mv	a3,a0
    14e4:	f6840613          	addi	a2,s0,-152
    14e8:	85b2                	mv	a1,a2
    14ea:	00005517          	auipc	a0,0x5
    14ee:	40650513          	addi	a0,a0,1030 # 68f0 <malloc+0x930>
    14f2:	00005097          	auipc	ra,0x5
    14f6:	a10080e7          	jalr	-1520(ra) # 5f02 <printf>
    14fa:	4505                	li	a0,1
    14fc:	00004097          	auipc	ra,0x4
    1500:	666080e7          	jalr	1638(ra) # 5b62 <exit>
    1504:	567d                	li	a2,-1
    1506:	f6840593          	addi	a1,s0,-152
    150a:	00005517          	auipc	a0,0x5
    150e:	40e50513          	addi	a0,a0,1038 # 6918 <malloc+0x958>
    1512:	00005097          	auipc	ra,0x5
    1516:	9f0080e7          	jalr	-1552(ra) # 5f02 <printf>
    151a:	4505                	li	a0,1
    151c:	00004097          	auipc	ra,0x4
    1520:	646080e7          	jalr	1606(ra) # 5b62 <exit>
    1524:	00006517          	auipc	a0,0x6
    1528:	87450513          	addi	a0,a0,-1932 # 6d98 <malloc+0xdd8>
    152c:	00005097          	auipc	ra,0x5
    1530:	9d6080e7          	jalr	-1578(ra) # 5f02 <printf>
    1534:	4505                	li	a0,1
    1536:	00004097          	auipc	ra,0x4
    153a:	62c080e7          	jalr	1580(ra) # 5b62 <exit>
    153e:	2eb00513          	li	a0,747
    1542:	00004097          	auipc	ra,0x4
    1546:	620080e7          	jalr	1568(ra) # 5b62 <exit>
    154a:	f4042a23          	sw	zero,-172(s0)
    154e:	f5440513          	addi	a0,s0,-172
    1552:	00004097          	auipc	ra,0x4
    1556:	618080e7          	jalr	1560(ra) # 5b6a <wait>
    155a:	f5442703          	lw	a4,-172(s0)
    155e:	2eb00793          	li	a5,747
    1562:	00f71663          	bne	a4,a5,156e <copyinstr2+0x1dc>
    1566:	60ae                	ld	ra,200(sp)
    1568:	640e                	ld	s0,192(sp)
    156a:	6169                	addi	sp,sp,208
    156c:	8082                	ret
    156e:	00005517          	auipc	a0,0x5
    1572:	3f250513          	addi	a0,a0,1010 # 6960 <malloc+0x9a0>
    1576:	00005097          	auipc	ra,0x5
    157a:	98c080e7          	jalr	-1652(ra) # 5f02 <printf>
    157e:	4505                	li	a0,1
    1580:	00004097          	auipc	ra,0x4
    1584:	5e2080e7          	jalr	1506(ra) # 5b62 <exit>

0000000000001588 <truncate3>:
    1588:	7159                	addi	sp,sp,-112
    158a:	f486                	sd	ra,104(sp)
    158c:	f0a2                	sd	s0,96(sp)
    158e:	eca6                	sd	s1,88(sp)
    1590:	e8ca                	sd	s2,80(sp)
    1592:	e4ce                	sd	s3,72(sp)
    1594:	e0d2                	sd	s4,64(sp)
    1596:	fc56                	sd	s5,56(sp)
    1598:	1880                	addi	s0,sp,112
    159a:	892a                	mv	s2,a0
    159c:	60100593          	li	a1,1537
    15a0:	00005517          	auipc	a0,0x5
    15a4:	bc050513          	addi	a0,a0,-1088 # 6160 <malloc+0x1a0>
    15a8:	00004097          	auipc	ra,0x4
    15ac:	5fa080e7          	jalr	1530(ra) # 5ba2 <open>
    15b0:	00004097          	auipc	ra,0x4
    15b4:	5da080e7          	jalr	1498(ra) # 5b8a <close>
    15b8:	00004097          	auipc	ra,0x4
    15bc:	5a2080e7          	jalr	1442(ra) # 5b5a <fork>
    15c0:	08054063          	bltz	a0,1640 <truncate3+0xb8>
    15c4:	e969                	bnez	a0,1696 <truncate3+0x10e>
    15c6:	06400993          	li	s3,100
    15ca:	00005a17          	auipc	s4,0x5
    15ce:	b96a0a13          	addi	s4,s4,-1130 # 6160 <malloc+0x1a0>
    15d2:	00005a97          	auipc	s5,0x5
    15d6:	3eea8a93          	addi	s5,s5,1006 # 69c0 <malloc+0xa00>
    15da:	4585                	li	a1,1
    15dc:	8552                	mv	a0,s4
    15de:	00004097          	auipc	ra,0x4
    15e2:	5c4080e7          	jalr	1476(ra) # 5ba2 <open>
    15e6:	84aa                	mv	s1,a0
    15e8:	06054a63          	bltz	a0,165c <truncate3+0xd4>
    15ec:	4629                	li	a2,10
    15ee:	85d6                	mv	a1,s5
    15f0:	00004097          	auipc	ra,0x4
    15f4:	592080e7          	jalr	1426(ra) # 5b82 <write>
    15f8:	47a9                	li	a5,10
    15fa:	06f51f63          	bne	a0,a5,1678 <truncate3+0xf0>
    15fe:	8526                	mv	a0,s1
    1600:	00004097          	auipc	ra,0x4
    1604:	58a080e7          	jalr	1418(ra) # 5b8a <close>
    1608:	4581                	li	a1,0
    160a:	8552                	mv	a0,s4
    160c:	00004097          	auipc	ra,0x4
    1610:	596080e7          	jalr	1430(ra) # 5ba2 <open>
    1614:	84aa                	mv	s1,a0
    1616:	02000613          	li	a2,32
    161a:	f9840593          	addi	a1,s0,-104
    161e:	00004097          	auipc	ra,0x4
    1622:	55c080e7          	jalr	1372(ra) # 5b7a <read>
    1626:	8526                	mv	a0,s1
    1628:	00004097          	auipc	ra,0x4
    162c:	562080e7          	jalr	1378(ra) # 5b8a <close>
    1630:	39fd                	addiw	s3,s3,-1
    1632:	fa0994e3          	bnez	s3,15da <truncate3+0x52>
    1636:	4501                	li	a0,0
    1638:	00004097          	auipc	ra,0x4
    163c:	52a080e7          	jalr	1322(ra) # 5b62 <exit>
    1640:	85ca                	mv	a1,s2
    1642:	00005517          	auipc	a0,0x5
    1646:	34e50513          	addi	a0,a0,846 # 6990 <malloc+0x9d0>
    164a:	00005097          	auipc	ra,0x5
    164e:	8b8080e7          	jalr	-1864(ra) # 5f02 <printf>
    1652:	4505                	li	a0,1
    1654:	00004097          	auipc	ra,0x4
    1658:	50e080e7          	jalr	1294(ra) # 5b62 <exit>
    165c:	85ca                	mv	a1,s2
    165e:	00005517          	auipc	a0,0x5
    1662:	34a50513          	addi	a0,a0,842 # 69a8 <malloc+0x9e8>
    1666:	00005097          	auipc	ra,0x5
    166a:	89c080e7          	jalr	-1892(ra) # 5f02 <printf>
    166e:	4505                	li	a0,1
    1670:	00004097          	auipc	ra,0x4
    1674:	4f2080e7          	jalr	1266(ra) # 5b62 <exit>
    1678:	862a                	mv	a2,a0
    167a:	85ca                	mv	a1,s2
    167c:	00005517          	auipc	a0,0x5
    1680:	35450513          	addi	a0,a0,852 # 69d0 <malloc+0xa10>
    1684:	00005097          	auipc	ra,0x5
    1688:	87e080e7          	jalr	-1922(ra) # 5f02 <printf>
    168c:	4505                	li	a0,1
    168e:	00004097          	auipc	ra,0x4
    1692:	4d4080e7          	jalr	1236(ra) # 5b62 <exit>
    1696:	09600993          	li	s3,150
    169a:	00005a17          	auipc	s4,0x5
    169e:	ac6a0a13          	addi	s4,s4,-1338 # 6160 <malloc+0x1a0>
    16a2:	00005a97          	auipc	s5,0x5
    16a6:	34ea8a93          	addi	s5,s5,846 # 69f0 <malloc+0xa30>
    16aa:	60100593          	li	a1,1537
    16ae:	8552                	mv	a0,s4
    16b0:	00004097          	auipc	ra,0x4
    16b4:	4f2080e7          	jalr	1266(ra) # 5ba2 <open>
    16b8:	84aa                	mv	s1,a0
    16ba:	04054763          	bltz	a0,1708 <truncate3+0x180>
    16be:	460d                	li	a2,3
    16c0:	85d6                	mv	a1,s5
    16c2:	00004097          	auipc	ra,0x4
    16c6:	4c0080e7          	jalr	1216(ra) # 5b82 <write>
    16ca:	478d                	li	a5,3
    16cc:	04f51c63          	bne	a0,a5,1724 <truncate3+0x19c>
    16d0:	8526                	mv	a0,s1
    16d2:	00004097          	auipc	ra,0x4
    16d6:	4b8080e7          	jalr	1208(ra) # 5b8a <close>
    16da:	39fd                	addiw	s3,s3,-1
    16dc:	fc0997e3          	bnez	s3,16aa <truncate3+0x122>
    16e0:	fbc40513          	addi	a0,s0,-68
    16e4:	00004097          	auipc	ra,0x4
    16e8:	486080e7          	jalr	1158(ra) # 5b6a <wait>
    16ec:	00005517          	auipc	a0,0x5
    16f0:	a7450513          	addi	a0,a0,-1420 # 6160 <malloc+0x1a0>
    16f4:	00004097          	auipc	ra,0x4
    16f8:	4be080e7          	jalr	1214(ra) # 5bb2 <unlink>
    16fc:	fbc42503          	lw	a0,-68(s0)
    1700:	00004097          	auipc	ra,0x4
    1704:	462080e7          	jalr	1122(ra) # 5b62 <exit>
    1708:	85ca                	mv	a1,s2
    170a:	00005517          	auipc	a0,0x5
    170e:	29e50513          	addi	a0,a0,670 # 69a8 <malloc+0x9e8>
    1712:	00004097          	auipc	ra,0x4
    1716:	7f0080e7          	jalr	2032(ra) # 5f02 <printf>
    171a:	4505                	li	a0,1
    171c:	00004097          	auipc	ra,0x4
    1720:	446080e7          	jalr	1094(ra) # 5b62 <exit>
    1724:	862a                	mv	a2,a0
    1726:	85ca                	mv	a1,s2
    1728:	00005517          	auipc	a0,0x5
    172c:	2d050513          	addi	a0,a0,720 # 69f8 <malloc+0xa38>
    1730:	00004097          	auipc	ra,0x4
    1734:	7d2080e7          	jalr	2002(ra) # 5f02 <printf>
    1738:	4505                	li	a0,1
    173a:	00004097          	auipc	ra,0x4
    173e:	428080e7          	jalr	1064(ra) # 5b62 <exit>

0000000000001742 <exectest>:
    1742:	715d                	addi	sp,sp,-80
    1744:	e486                	sd	ra,72(sp)
    1746:	e0a2                	sd	s0,64(sp)
    1748:	fc26                	sd	s1,56(sp)
    174a:	f84a                	sd	s2,48(sp)
    174c:	0880                	addi	s0,sp,80
    174e:	892a                	mv	s2,a0
    1750:	00005797          	auipc	a5,0x5
    1754:	9b878793          	addi	a5,a5,-1608 # 6108 <malloc+0x148>
    1758:	fcf43023          	sd	a5,-64(s0)
    175c:	00005797          	auipc	a5,0x5
    1760:	2bc78793          	addi	a5,a5,700 # 6a18 <malloc+0xa58>
    1764:	fcf43423          	sd	a5,-56(s0)
    1768:	fc043823          	sd	zero,-48(s0)
    176c:	00005517          	auipc	a0,0x5
    1770:	2b450513          	addi	a0,a0,692 # 6a20 <malloc+0xa60>
    1774:	00004097          	auipc	ra,0x4
    1778:	43e080e7          	jalr	1086(ra) # 5bb2 <unlink>
    177c:	00004097          	auipc	ra,0x4
    1780:	3de080e7          	jalr	990(ra) # 5b5a <fork>
    1784:	04054663          	bltz	a0,17d0 <exectest+0x8e>
    1788:	84aa                	mv	s1,a0
    178a:	e959                	bnez	a0,1820 <exectest+0xde>
    178c:	4505                	li	a0,1
    178e:	00004097          	auipc	ra,0x4
    1792:	3fc080e7          	jalr	1020(ra) # 5b8a <close>
    1796:	20100593          	li	a1,513
    179a:	00005517          	auipc	a0,0x5
    179e:	28650513          	addi	a0,a0,646 # 6a20 <malloc+0xa60>
    17a2:	00004097          	auipc	ra,0x4
    17a6:	400080e7          	jalr	1024(ra) # 5ba2 <open>
    17aa:	04054163          	bltz	a0,17ec <exectest+0xaa>
    17ae:	4785                	li	a5,1
    17b0:	04f50c63          	beq	a0,a5,1808 <exectest+0xc6>
    17b4:	85ca                	mv	a1,s2
    17b6:	00005517          	auipc	a0,0x5
    17ba:	28a50513          	addi	a0,a0,650 # 6a40 <malloc+0xa80>
    17be:	00004097          	auipc	ra,0x4
    17c2:	744080e7          	jalr	1860(ra) # 5f02 <printf>
    17c6:	4505                	li	a0,1
    17c8:	00004097          	auipc	ra,0x4
    17cc:	39a080e7          	jalr	922(ra) # 5b62 <exit>
    17d0:	85ca                	mv	a1,s2
    17d2:	00005517          	auipc	a0,0x5
    17d6:	1be50513          	addi	a0,a0,446 # 6990 <malloc+0x9d0>
    17da:	00004097          	auipc	ra,0x4
    17de:	728080e7          	jalr	1832(ra) # 5f02 <printf>
    17e2:	4505                	li	a0,1
    17e4:	00004097          	auipc	ra,0x4
    17e8:	37e080e7          	jalr	894(ra) # 5b62 <exit>
    17ec:	85ca                	mv	a1,s2
    17ee:	00005517          	auipc	a0,0x5
    17f2:	23a50513          	addi	a0,a0,570 # 6a28 <malloc+0xa68>
    17f6:	00004097          	auipc	ra,0x4
    17fa:	70c080e7          	jalr	1804(ra) # 5f02 <printf>
    17fe:	4505                	li	a0,1
    1800:	00004097          	auipc	ra,0x4
    1804:	362080e7          	jalr	866(ra) # 5b62 <exit>
    1808:	fc040593          	addi	a1,s0,-64
    180c:	00005517          	auipc	a0,0x5
    1810:	8fc50513          	addi	a0,a0,-1796 # 6108 <malloc+0x148>
    1814:	00004097          	auipc	ra,0x4
    1818:	386080e7          	jalr	902(ra) # 5b9a <exec>
    181c:	02054163          	bltz	a0,183e <exectest+0xfc>
    1820:	fdc40513          	addi	a0,s0,-36
    1824:	00004097          	auipc	ra,0x4
    1828:	346080e7          	jalr	838(ra) # 5b6a <wait>
    182c:	02951763          	bne	a0,s1,185a <exectest+0x118>
    1830:	fdc42503          	lw	a0,-36(s0)
    1834:	cd0d                	beqz	a0,186e <exectest+0x12c>
    1836:	00004097          	auipc	ra,0x4
    183a:	32c080e7          	jalr	812(ra) # 5b62 <exit>
    183e:	85ca                	mv	a1,s2
    1840:	00005517          	auipc	a0,0x5
    1844:	21050513          	addi	a0,a0,528 # 6a50 <malloc+0xa90>
    1848:	00004097          	auipc	ra,0x4
    184c:	6ba080e7          	jalr	1722(ra) # 5f02 <printf>
    1850:	4505                	li	a0,1
    1852:	00004097          	auipc	ra,0x4
    1856:	310080e7          	jalr	784(ra) # 5b62 <exit>
    185a:	85ca                	mv	a1,s2
    185c:	00005517          	auipc	a0,0x5
    1860:	20c50513          	addi	a0,a0,524 # 6a68 <malloc+0xaa8>
    1864:	00004097          	auipc	ra,0x4
    1868:	69e080e7          	jalr	1694(ra) # 5f02 <printf>
    186c:	b7d1                	j	1830 <exectest+0xee>
    186e:	4581                	li	a1,0
    1870:	00005517          	auipc	a0,0x5
    1874:	1b050513          	addi	a0,a0,432 # 6a20 <malloc+0xa60>
    1878:	00004097          	auipc	ra,0x4
    187c:	32a080e7          	jalr	810(ra) # 5ba2 <open>
    1880:	02054a63          	bltz	a0,18b4 <exectest+0x172>
    1884:	4609                	li	a2,2
    1886:	fb840593          	addi	a1,s0,-72
    188a:	00004097          	auipc	ra,0x4
    188e:	2f0080e7          	jalr	752(ra) # 5b7a <read>
    1892:	4789                	li	a5,2
    1894:	02f50e63          	beq	a0,a5,18d0 <exectest+0x18e>
    1898:	85ca                	mv	a1,s2
    189a:	00005517          	auipc	a0,0x5
    189e:	c3e50513          	addi	a0,a0,-962 # 64d8 <malloc+0x518>
    18a2:	00004097          	auipc	ra,0x4
    18a6:	660080e7          	jalr	1632(ra) # 5f02 <printf>
    18aa:	4505                	li	a0,1
    18ac:	00004097          	auipc	ra,0x4
    18b0:	2b6080e7          	jalr	694(ra) # 5b62 <exit>
    18b4:	85ca                	mv	a1,s2
    18b6:	00005517          	auipc	a0,0x5
    18ba:	0f250513          	addi	a0,a0,242 # 69a8 <malloc+0x9e8>
    18be:	00004097          	auipc	ra,0x4
    18c2:	644080e7          	jalr	1604(ra) # 5f02 <printf>
    18c6:	4505                	li	a0,1
    18c8:	00004097          	auipc	ra,0x4
    18cc:	29a080e7          	jalr	666(ra) # 5b62 <exit>
    18d0:	00005517          	auipc	a0,0x5
    18d4:	15050513          	addi	a0,a0,336 # 6a20 <malloc+0xa60>
    18d8:	00004097          	auipc	ra,0x4
    18dc:	2da080e7          	jalr	730(ra) # 5bb2 <unlink>
    18e0:	fb844703          	lbu	a4,-72(s0)
    18e4:	04f00793          	li	a5,79
    18e8:	00f71863          	bne	a4,a5,18f8 <exectest+0x1b6>
    18ec:	fb944703          	lbu	a4,-71(s0)
    18f0:	04b00793          	li	a5,75
    18f4:	02f70063          	beq	a4,a5,1914 <exectest+0x1d2>
    18f8:	85ca                	mv	a1,s2
    18fa:	00005517          	auipc	a0,0x5
    18fe:	18650513          	addi	a0,a0,390 # 6a80 <malloc+0xac0>
    1902:	00004097          	auipc	ra,0x4
    1906:	600080e7          	jalr	1536(ra) # 5f02 <printf>
    190a:	4505                	li	a0,1
    190c:	00004097          	auipc	ra,0x4
    1910:	256080e7          	jalr	598(ra) # 5b62 <exit>
    1914:	4501                	li	a0,0
    1916:	00004097          	auipc	ra,0x4
    191a:	24c080e7          	jalr	588(ra) # 5b62 <exit>

000000000000191e <pipe1>:
    191e:	711d                	addi	sp,sp,-96
    1920:	ec86                	sd	ra,88(sp)
    1922:	e8a2                	sd	s0,80(sp)
    1924:	e4a6                	sd	s1,72(sp)
    1926:	e0ca                	sd	s2,64(sp)
    1928:	fc4e                	sd	s3,56(sp)
    192a:	f852                	sd	s4,48(sp)
    192c:	f456                	sd	s5,40(sp)
    192e:	f05a                	sd	s6,32(sp)
    1930:	ec5e                	sd	s7,24(sp)
    1932:	1080                	addi	s0,sp,96
    1934:	892a                	mv	s2,a0
    1936:	fa840513          	addi	a0,s0,-88
    193a:	00004097          	auipc	ra,0x4
    193e:	238080e7          	jalr	568(ra) # 5b72 <pipe>
    1942:	ed25                	bnez	a0,19ba <pipe1+0x9c>
    1944:	84aa                	mv	s1,a0
    1946:	00004097          	auipc	ra,0x4
    194a:	214080e7          	jalr	532(ra) # 5b5a <fork>
    194e:	8a2a                	mv	s4,a0
    1950:	c159                	beqz	a0,19d6 <pipe1+0xb8>
    1952:	16a05e63          	blez	a0,1ace <pipe1+0x1b0>
    1956:	fac42503          	lw	a0,-84(s0)
    195a:	00004097          	auipc	ra,0x4
    195e:	230080e7          	jalr	560(ra) # 5b8a <close>
    1962:	8a26                	mv	s4,s1
    1964:	4985                	li	s3,1
    1966:	0000ba97          	auipc	s5,0xb
    196a:	302a8a93          	addi	s5,s5,770 # cc68 <buf>
    196e:	6b0d                	lui	s6,0x3
    1970:	864e                	mv	a2,s3
    1972:	85d6                	mv	a1,s5
    1974:	fa842503          	lw	a0,-88(s0)
    1978:	00004097          	auipc	ra,0x4
    197c:	202080e7          	jalr	514(ra) # 5b7a <read>
    1980:	10a05263          	blez	a0,1a84 <pipe1+0x166>
    1984:	0000b717          	auipc	a4,0xb
    1988:	2e470713          	addi	a4,a4,740 # cc68 <buf>
    198c:	00a4863b          	addw	a2,s1,a0
    1990:	00074683          	lbu	a3,0(a4)
    1994:	0ff4f793          	andi	a5,s1,255
    1998:	2485                	addiw	s1,s1,1
    199a:	0cf69163          	bne	a3,a5,1a5c <pipe1+0x13e>
    199e:	0705                	addi	a4,a4,1
    19a0:	fec498e3          	bne	s1,a2,1990 <pipe1+0x72>
    19a4:	00aa0a3b          	addw	s4,s4,a0
    19a8:	0019979b          	slliw	a5,s3,0x1
    19ac:	0007899b          	sext.w	s3,a5
    19b0:	013b7363          	bgeu	s6,s3,19b6 <pipe1+0x98>
    19b4:	89da                	mv	s3,s6
    19b6:	84b2                	mv	s1,a2
    19b8:	bf65                	j	1970 <pipe1+0x52>
    19ba:	85ca                	mv	a1,s2
    19bc:	00005517          	auipc	a0,0x5
    19c0:	0dc50513          	addi	a0,a0,220 # 6a98 <malloc+0xad8>
    19c4:	00004097          	auipc	ra,0x4
    19c8:	53e080e7          	jalr	1342(ra) # 5f02 <printf>
    19cc:	4505                	li	a0,1
    19ce:	00004097          	auipc	ra,0x4
    19d2:	194080e7          	jalr	404(ra) # 5b62 <exit>
    19d6:	fa842503          	lw	a0,-88(s0)
    19da:	00004097          	auipc	ra,0x4
    19de:	1b0080e7          	jalr	432(ra) # 5b8a <close>
    19e2:	0000bb17          	auipc	s6,0xb
    19e6:	286b0b13          	addi	s6,s6,646 # cc68 <buf>
    19ea:	416004bb          	negw	s1,s6
    19ee:	0ff4f493          	andi	s1,s1,255
    19f2:	409b0993          	addi	s3,s6,1033
    19f6:	8bda                	mv	s7,s6
    19f8:	6a85                	lui	s5,0x1
    19fa:	42da8a93          	addi	s5,s5,1069 # 142d <copyinstr2+0x9b>
    19fe:	87da                	mv	a5,s6
    1a00:	0097873b          	addw	a4,a5,s1
    1a04:	00e78023          	sb	a4,0(a5)
    1a08:	0785                	addi	a5,a5,1
    1a0a:	fef99be3          	bne	s3,a5,1a00 <pipe1+0xe2>
    1a0e:	409a0a1b          	addiw	s4,s4,1033
    1a12:	40900613          	li	a2,1033
    1a16:	85de                	mv	a1,s7
    1a18:	fac42503          	lw	a0,-84(s0)
    1a1c:	00004097          	auipc	ra,0x4
    1a20:	166080e7          	jalr	358(ra) # 5b82 <write>
    1a24:	40900793          	li	a5,1033
    1a28:	00f51c63          	bne	a0,a5,1a40 <pipe1+0x122>
    1a2c:	24a5                	addiw	s1,s1,9
    1a2e:	0ff4f493          	andi	s1,s1,255
    1a32:	fd5a16e3          	bne	s4,s5,19fe <pipe1+0xe0>
    1a36:	4501                	li	a0,0
    1a38:	00004097          	auipc	ra,0x4
    1a3c:	12a080e7          	jalr	298(ra) # 5b62 <exit>
    1a40:	85ca                	mv	a1,s2
    1a42:	00005517          	auipc	a0,0x5
    1a46:	06e50513          	addi	a0,a0,110 # 6ab0 <malloc+0xaf0>
    1a4a:	00004097          	auipc	ra,0x4
    1a4e:	4b8080e7          	jalr	1208(ra) # 5f02 <printf>
    1a52:	4505                	li	a0,1
    1a54:	00004097          	auipc	ra,0x4
    1a58:	10e080e7          	jalr	270(ra) # 5b62 <exit>
    1a5c:	85ca                	mv	a1,s2
    1a5e:	00005517          	auipc	a0,0x5
    1a62:	06a50513          	addi	a0,a0,106 # 6ac8 <malloc+0xb08>
    1a66:	00004097          	auipc	ra,0x4
    1a6a:	49c080e7          	jalr	1180(ra) # 5f02 <printf>
    1a6e:	60e6                	ld	ra,88(sp)
    1a70:	6446                	ld	s0,80(sp)
    1a72:	64a6                	ld	s1,72(sp)
    1a74:	6906                	ld	s2,64(sp)
    1a76:	79e2                	ld	s3,56(sp)
    1a78:	7a42                	ld	s4,48(sp)
    1a7a:	7aa2                	ld	s5,40(sp)
    1a7c:	7b02                	ld	s6,32(sp)
    1a7e:	6be2                	ld	s7,24(sp)
    1a80:	6125                	addi	sp,sp,96
    1a82:	8082                	ret
    1a84:	6785                	lui	a5,0x1
    1a86:	42d78793          	addi	a5,a5,1069 # 142d <copyinstr2+0x9b>
    1a8a:	02fa0063          	beq	s4,a5,1aaa <pipe1+0x18c>
    1a8e:	85d2                	mv	a1,s4
    1a90:	00005517          	auipc	a0,0x5
    1a94:	05050513          	addi	a0,a0,80 # 6ae0 <malloc+0xb20>
    1a98:	00004097          	auipc	ra,0x4
    1a9c:	46a080e7          	jalr	1130(ra) # 5f02 <printf>
    1aa0:	4505                	li	a0,1
    1aa2:	00004097          	auipc	ra,0x4
    1aa6:	0c0080e7          	jalr	192(ra) # 5b62 <exit>
    1aaa:	fa842503          	lw	a0,-88(s0)
    1aae:	00004097          	auipc	ra,0x4
    1ab2:	0dc080e7          	jalr	220(ra) # 5b8a <close>
    1ab6:	fa440513          	addi	a0,s0,-92
    1aba:	00004097          	auipc	ra,0x4
    1abe:	0b0080e7          	jalr	176(ra) # 5b6a <wait>
    1ac2:	fa442503          	lw	a0,-92(s0)
    1ac6:	00004097          	auipc	ra,0x4
    1aca:	09c080e7          	jalr	156(ra) # 5b62 <exit>
    1ace:	85ca                	mv	a1,s2
    1ad0:	00005517          	auipc	a0,0x5
    1ad4:	03050513          	addi	a0,a0,48 # 6b00 <malloc+0xb40>
    1ad8:	00004097          	auipc	ra,0x4
    1adc:	42a080e7          	jalr	1066(ra) # 5f02 <printf>
    1ae0:	4505                	li	a0,1
    1ae2:	00004097          	auipc	ra,0x4
    1ae6:	080080e7          	jalr	128(ra) # 5b62 <exit>

0000000000001aea <exitwait>:
    1aea:	7139                	addi	sp,sp,-64
    1aec:	fc06                	sd	ra,56(sp)
    1aee:	f822                	sd	s0,48(sp)
    1af0:	f426                	sd	s1,40(sp)
    1af2:	f04a                	sd	s2,32(sp)
    1af4:	ec4e                	sd	s3,24(sp)
    1af6:	e852                	sd	s4,16(sp)
    1af8:	0080                	addi	s0,sp,64
    1afa:	8a2a                	mv	s4,a0
    1afc:	4901                	li	s2,0
    1afe:	06400993          	li	s3,100
    1b02:	00004097          	auipc	ra,0x4
    1b06:	058080e7          	jalr	88(ra) # 5b5a <fork>
    1b0a:	84aa                	mv	s1,a0
    1b0c:	02054a63          	bltz	a0,1b40 <exitwait+0x56>
    1b10:	c151                	beqz	a0,1b94 <exitwait+0xaa>
    1b12:	fcc40513          	addi	a0,s0,-52
    1b16:	00004097          	auipc	ra,0x4
    1b1a:	054080e7          	jalr	84(ra) # 5b6a <wait>
    1b1e:	02951f63          	bne	a0,s1,1b5c <exitwait+0x72>
    1b22:	fcc42783          	lw	a5,-52(s0)
    1b26:	05279963          	bne	a5,s2,1b78 <exitwait+0x8e>
    1b2a:	2905                	addiw	s2,s2,1
    1b2c:	fd391be3          	bne	s2,s3,1b02 <exitwait+0x18>
    1b30:	70e2                	ld	ra,56(sp)
    1b32:	7442                	ld	s0,48(sp)
    1b34:	74a2                	ld	s1,40(sp)
    1b36:	7902                	ld	s2,32(sp)
    1b38:	69e2                	ld	s3,24(sp)
    1b3a:	6a42                	ld	s4,16(sp)
    1b3c:	6121                	addi	sp,sp,64
    1b3e:	8082                	ret
    1b40:	85d2                	mv	a1,s4
    1b42:	00005517          	auipc	a0,0x5
    1b46:	e4e50513          	addi	a0,a0,-434 # 6990 <malloc+0x9d0>
    1b4a:	00004097          	auipc	ra,0x4
    1b4e:	3b8080e7          	jalr	952(ra) # 5f02 <printf>
    1b52:	4505                	li	a0,1
    1b54:	00004097          	auipc	ra,0x4
    1b58:	00e080e7          	jalr	14(ra) # 5b62 <exit>
    1b5c:	85d2                	mv	a1,s4
    1b5e:	00005517          	auipc	a0,0x5
    1b62:	fba50513          	addi	a0,a0,-70 # 6b18 <malloc+0xb58>
    1b66:	00004097          	auipc	ra,0x4
    1b6a:	39c080e7          	jalr	924(ra) # 5f02 <printf>
    1b6e:	4505                	li	a0,1
    1b70:	00004097          	auipc	ra,0x4
    1b74:	ff2080e7          	jalr	-14(ra) # 5b62 <exit>
    1b78:	85d2                	mv	a1,s4
    1b7a:	00005517          	auipc	a0,0x5
    1b7e:	fb650513          	addi	a0,a0,-74 # 6b30 <malloc+0xb70>
    1b82:	00004097          	auipc	ra,0x4
    1b86:	380080e7          	jalr	896(ra) # 5f02 <printf>
    1b8a:	4505                	li	a0,1
    1b8c:	00004097          	auipc	ra,0x4
    1b90:	fd6080e7          	jalr	-42(ra) # 5b62 <exit>
    1b94:	854a                	mv	a0,s2
    1b96:	00004097          	auipc	ra,0x4
    1b9a:	fcc080e7          	jalr	-52(ra) # 5b62 <exit>

0000000000001b9e <twochildren>:
    1b9e:	1101                	addi	sp,sp,-32
    1ba0:	ec06                	sd	ra,24(sp)
    1ba2:	e822                	sd	s0,16(sp)
    1ba4:	e426                	sd	s1,8(sp)
    1ba6:	e04a                	sd	s2,0(sp)
    1ba8:	1000                	addi	s0,sp,32
    1baa:	892a                	mv	s2,a0
    1bac:	3e800493          	li	s1,1000
    1bb0:	00004097          	auipc	ra,0x4
    1bb4:	faa080e7          	jalr	-86(ra) # 5b5a <fork>
    1bb8:	02054c63          	bltz	a0,1bf0 <twochildren+0x52>
    1bbc:	c921                	beqz	a0,1c0c <twochildren+0x6e>
    1bbe:	00004097          	auipc	ra,0x4
    1bc2:	f9c080e7          	jalr	-100(ra) # 5b5a <fork>
    1bc6:	04054763          	bltz	a0,1c14 <twochildren+0x76>
    1bca:	c13d                	beqz	a0,1c30 <twochildren+0x92>
    1bcc:	4501                	li	a0,0
    1bce:	00004097          	auipc	ra,0x4
    1bd2:	f9c080e7          	jalr	-100(ra) # 5b6a <wait>
    1bd6:	4501                	li	a0,0
    1bd8:	00004097          	auipc	ra,0x4
    1bdc:	f92080e7          	jalr	-110(ra) # 5b6a <wait>
    1be0:	34fd                	addiw	s1,s1,-1
    1be2:	f4f9                	bnez	s1,1bb0 <twochildren+0x12>
    1be4:	60e2                	ld	ra,24(sp)
    1be6:	6442                	ld	s0,16(sp)
    1be8:	64a2                	ld	s1,8(sp)
    1bea:	6902                	ld	s2,0(sp)
    1bec:	6105                	addi	sp,sp,32
    1bee:	8082                	ret
    1bf0:	85ca                	mv	a1,s2
    1bf2:	00005517          	auipc	a0,0x5
    1bf6:	d9e50513          	addi	a0,a0,-610 # 6990 <malloc+0x9d0>
    1bfa:	00004097          	auipc	ra,0x4
    1bfe:	308080e7          	jalr	776(ra) # 5f02 <printf>
    1c02:	4505                	li	a0,1
    1c04:	00004097          	auipc	ra,0x4
    1c08:	f5e080e7          	jalr	-162(ra) # 5b62 <exit>
    1c0c:	00004097          	auipc	ra,0x4
    1c10:	f56080e7          	jalr	-170(ra) # 5b62 <exit>
    1c14:	85ca                	mv	a1,s2
    1c16:	00005517          	auipc	a0,0x5
    1c1a:	d7a50513          	addi	a0,a0,-646 # 6990 <malloc+0x9d0>
    1c1e:	00004097          	auipc	ra,0x4
    1c22:	2e4080e7          	jalr	740(ra) # 5f02 <printf>
    1c26:	4505                	li	a0,1
    1c28:	00004097          	auipc	ra,0x4
    1c2c:	f3a080e7          	jalr	-198(ra) # 5b62 <exit>
    1c30:	00004097          	auipc	ra,0x4
    1c34:	f32080e7          	jalr	-206(ra) # 5b62 <exit>

0000000000001c38 <forkfork>:
    1c38:	7179                	addi	sp,sp,-48
    1c3a:	f406                	sd	ra,40(sp)
    1c3c:	f022                	sd	s0,32(sp)
    1c3e:	ec26                	sd	s1,24(sp)
    1c40:	1800                	addi	s0,sp,48
    1c42:	84aa                	mv	s1,a0
    1c44:	00004097          	auipc	ra,0x4
    1c48:	f16080e7          	jalr	-234(ra) # 5b5a <fork>
    1c4c:	04054163          	bltz	a0,1c8e <forkfork+0x56>
    1c50:	cd29                	beqz	a0,1caa <forkfork+0x72>
    1c52:	00004097          	auipc	ra,0x4
    1c56:	f08080e7          	jalr	-248(ra) # 5b5a <fork>
    1c5a:	02054a63          	bltz	a0,1c8e <forkfork+0x56>
    1c5e:	c531                	beqz	a0,1caa <forkfork+0x72>
    1c60:	fdc40513          	addi	a0,s0,-36
    1c64:	00004097          	auipc	ra,0x4
    1c68:	f06080e7          	jalr	-250(ra) # 5b6a <wait>
    1c6c:	fdc42783          	lw	a5,-36(s0)
    1c70:	ebbd                	bnez	a5,1ce6 <forkfork+0xae>
    1c72:	fdc40513          	addi	a0,s0,-36
    1c76:	00004097          	auipc	ra,0x4
    1c7a:	ef4080e7          	jalr	-268(ra) # 5b6a <wait>
    1c7e:	fdc42783          	lw	a5,-36(s0)
    1c82:	e3b5                	bnez	a5,1ce6 <forkfork+0xae>
    1c84:	70a2                	ld	ra,40(sp)
    1c86:	7402                	ld	s0,32(sp)
    1c88:	64e2                	ld	s1,24(sp)
    1c8a:	6145                	addi	sp,sp,48
    1c8c:	8082                	ret
    1c8e:	85a6                	mv	a1,s1
    1c90:	00005517          	auipc	a0,0x5
    1c94:	ec050513          	addi	a0,a0,-320 # 6b50 <malloc+0xb90>
    1c98:	00004097          	auipc	ra,0x4
    1c9c:	26a080e7          	jalr	618(ra) # 5f02 <printf>
    1ca0:	4505                	li	a0,1
    1ca2:	00004097          	auipc	ra,0x4
    1ca6:	ec0080e7          	jalr	-320(ra) # 5b62 <exit>
    1caa:	0c800493          	li	s1,200
    1cae:	00004097          	auipc	ra,0x4
    1cb2:	eac080e7          	jalr	-340(ra) # 5b5a <fork>
    1cb6:	00054f63          	bltz	a0,1cd4 <forkfork+0x9c>
    1cba:	c115                	beqz	a0,1cde <forkfork+0xa6>
    1cbc:	4501                	li	a0,0
    1cbe:	00004097          	auipc	ra,0x4
    1cc2:	eac080e7          	jalr	-340(ra) # 5b6a <wait>
    1cc6:	34fd                	addiw	s1,s1,-1
    1cc8:	f0fd                	bnez	s1,1cae <forkfork+0x76>
    1cca:	4501                	li	a0,0
    1ccc:	00004097          	auipc	ra,0x4
    1cd0:	e96080e7          	jalr	-362(ra) # 5b62 <exit>
    1cd4:	4505                	li	a0,1
    1cd6:	00004097          	auipc	ra,0x4
    1cda:	e8c080e7          	jalr	-372(ra) # 5b62 <exit>
    1cde:	00004097          	auipc	ra,0x4
    1ce2:	e84080e7          	jalr	-380(ra) # 5b62 <exit>
    1ce6:	85a6                	mv	a1,s1
    1ce8:	00005517          	auipc	a0,0x5
    1cec:	e7850513          	addi	a0,a0,-392 # 6b60 <malloc+0xba0>
    1cf0:	00004097          	auipc	ra,0x4
    1cf4:	212080e7          	jalr	530(ra) # 5f02 <printf>
    1cf8:	4505                	li	a0,1
    1cfa:	00004097          	auipc	ra,0x4
    1cfe:	e68080e7          	jalr	-408(ra) # 5b62 <exit>

0000000000001d02 <reparent2>:
    1d02:	1101                	addi	sp,sp,-32
    1d04:	ec06                	sd	ra,24(sp)
    1d06:	e822                	sd	s0,16(sp)
    1d08:	e426                	sd	s1,8(sp)
    1d0a:	1000                	addi	s0,sp,32
    1d0c:	32000493          	li	s1,800
    1d10:	00004097          	auipc	ra,0x4
    1d14:	e4a080e7          	jalr	-438(ra) # 5b5a <fork>
    1d18:	00054f63          	bltz	a0,1d36 <reparent2+0x34>
    1d1c:	c915                	beqz	a0,1d50 <reparent2+0x4e>
    1d1e:	4501                	li	a0,0
    1d20:	00004097          	auipc	ra,0x4
    1d24:	e4a080e7          	jalr	-438(ra) # 5b6a <wait>
    1d28:	34fd                	addiw	s1,s1,-1
    1d2a:	f0fd                	bnez	s1,1d10 <reparent2+0xe>
    1d2c:	4501                	li	a0,0
    1d2e:	00004097          	auipc	ra,0x4
    1d32:	e34080e7          	jalr	-460(ra) # 5b62 <exit>
    1d36:	00005517          	auipc	a0,0x5
    1d3a:	06250513          	addi	a0,a0,98 # 6d98 <malloc+0xdd8>
    1d3e:	00004097          	auipc	ra,0x4
    1d42:	1c4080e7          	jalr	452(ra) # 5f02 <printf>
    1d46:	4505                	li	a0,1
    1d48:	00004097          	auipc	ra,0x4
    1d4c:	e1a080e7          	jalr	-486(ra) # 5b62 <exit>
    1d50:	00004097          	auipc	ra,0x4
    1d54:	e0a080e7          	jalr	-502(ra) # 5b5a <fork>
    1d58:	00004097          	auipc	ra,0x4
    1d5c:	e02080e7          	jalr	-510(ra) # 5b5a <fork>
    1d60:	4501                	li	a0,0
    1d62:	00004097          	auipc	ra,0x4
    1d66:	e00080e7          	jalr	-512(ra) # 5b62 <exit>

0000000000001d6a <createdelete>:
    1d6a:	7175                	addi	sp,sp,-144
    1d6c:	e506                	sd	ra,136(sp)
    1d6e:	e122                	sd	s0,128(sp)
    1d70:	fca6                	sd	s1,120(sp)
    1d72:	f8ca                	sd	s2,112(sp)
    1d74:	f4ce                	sd	s3,104(sp)
    1d76:	f0d2                	sd	s4,96(sp)
    1d78:	ecd6                	sd	s5,88(sp)
    1d7a:	e8da                	sd	s6,80(sp)
    1d7c:	e4de                	sd	s7,72(sp)
    1d7e:	e0e2                	sd	s8,64(sp)
    1d80:	fc66                	sd	s9,56(sp)
    1d82:	0900                	addi	s0,sp,144
    1d84:	8caa                	mv	s9,a0
    1d86:	4901                	li	s2,0
    1d88:	4991                	li	s3,4
    1d8a:	00004097          	auipc	ra,0x4
    1d8e:	dd0080e7          	jalr	-560(ra) # 5b5a <fork>
    1d92:	84aa                	mv	s1,a0
    1d94:	02054f63          	bltz	a0,1dd2 <createdelete+0x68>
    1d98:	c939                	beqz	a0,1dee <createdelete+0x84>
    1d9a:	2905                	addiw	s2,s2,1
    1d9c:	ff3917e3          	bne	s2,s3,1d8a <createdelete+0x20>
    1da0:	4491                	li	s1,4
    1da2:	f7c40513          	addi	a0,s0,-132
    1da6:	00004097          	auipc	ra,0x4
    1daa:	dc4080e7          	jalr	-572(ra) # 5b6a <wait>
    1dae:	f7c42903          	lw	s2,-132(s0)
    1db2:	0e091263          	bnez	s2,1e96 <createdelete+0x12c>
    1db6:	34fd                	addiw	s1,s1,-1
    1db8:	f4ed                	bnez	s1,1da2 <createdelete+0x38>
    1dba:	f8040123          	sb	zero,-126(s0)
    1dbe:	03000993          	li	s3,48
    1dc2:	5a7d                	li	s4,-1
    1dc4:	07000c13          	li	s8,112
    1dc8:	4b21                	li	s6,8
    1dca:	4ba5                	li	s7,9
    1dcc:	07400a93          	li	s5,116
    1dd0:	a29d                	j	1f36 <createdelete+0x1cc>
    1dd2:	85e6                	mv	a1,s9
    1dd4:	00005517          	auipc	a0,0x5
    1dd8:	fc450513          	addi	a0,a0,-60 # 6d98 <malloc+0xdd8>
    1ddc:	00004097          	auipc	ra,0x4
    1de0:	126080e7          	jalr	294(ra) # 5f02 <printf>
    1de4:	4505                	li	a0,1
    1de6:	00004097          	auipc	ra,0x4
    1dea:	d7c080e7          	jalr	-644(ra) # 5b62 <exit>
    1dee:	0709091b          	addiw	s2,s2,112
    1df2:	f9240023          	sb	s2,-128(s0)
    1df6:	f8040123          	sb	zero,-126(s0)
    1dfa:	4951                	li	s2,20
    1dfc:	a015                	j	1e20 <createdelete+0xb6>
    1dfe:	85e6                	mv	a1,s9
    1e00:	00005517          	auipc	a0,0x5
    1e04:	c2850513          	addi	a0,a0,-984 # 6a28 <malloc+0xa68>
    1e08:	00004097          	auipc	ra,0x4
    1e0c:	0fa080e7          	jalr	250(ra) # 5f02 <printf>
    1e10:	4505                	li	a0,1
    1e12:	00004097          	auipc	ra,0x4
    1e16:	d50080e7          	jalr	-688(ra) # 5b62 <exit>
    1e1a:	2485                	addiw	s1,s1,1
    1e1c:	07248863          	beq	s1,s2,1e8c <createdelete+0x122>
    1e20:	0304879b          	addiw	a5,s1,48
    1e24:	f8f400a3          	sb	a5,-127(s0)
    1e28:	20200593          	li	a1,514
    1e2c:	f8040513          	addi	a0,s0,-128
    1e30:	00004097          	auipc	ra,0x4
    1e34:	d72080e7          	jalr	-654(ra) # 5ba2 <open>
    1e38:	fc0543e3          	bltz	a0,1dfe <createdelete+0x94>
    1e3c:	00004097          	auipc	ra,0x4
    1e40:	d4e080e7          	jalr	-690(ra) # 5b8a <close>
    1e44:	fc905be3          	blez	s1,1e1a <createdelete+0xb0>
    1e48:	0014f793          	andi	a5,s1,1
    1e4c:	f7f9                	bnez	a5,1e1a <createdelete+0xb0>
    1e4e:	01f4d79b          	srliw	a5,s1,0x1f
    1e52:	9fa5                	addw	a5,a5,s1
    1e54:	4017d79b          	sraiw	a5,a5,0x1
    1e58:	0307879b          	addiw	a5,a5,48
    1e5c:	f8f400a3          	sb	a5,-127(s0)
    1e60:	f8040513          	addi	a0,s0,-128
    1e64:	00004097          	auipc	ra,0x4
    1e68:	d4e080e7          	jalr	-690(ra) # 5bb2 <unlink>
    1e6c:	fa0557e3          	bgez	a0,1e1a <createdelete+0xb0>
    1e70:	85e6                	mv	a1,s9
    1e72:	00005517          	auipc	a0,0x5
    1e76:	d0e50513          	addi	a0,a0,-754 # 6b80 <malloc+0xbc0>
    1e7a:	00004097          	auipc	ra,0x4
    1e7e:	088080e7          	jalr	136(ra) # 5f02 <printf>
    1e82:	4505                	li	a0,1
    1e84:	00004097          	auipc	ra,0x4
    1e88:	cde080e7          	jalr	-802(ra) # 5b62 <exit>
    1e8c:	4501                	li	a0,0
    1e8e:	00004097          	auipc	ra,0x4
    1e92:	cd4080e7          	jalr	-812(ra) # 5b62 <exit>
    1e96:	4505                	li	a0,1
    1e98:	00004097          	auipc	ra,0x4
    1e9c:	cca080e7          	jalr	-822(ra) # 5b62 <exit>
    1ea0:	f8040613          	addi	a2,s0,-128
    1ea4:	85e6                	mv	a1,s9
    1ea6:	00005517          	auipc	a0,0x5
    1eaa:	cf250513          	addi	a0,a0,-782 # 6b98 <malloc+0xbd8>
    1eae:	00004097          	auipc	ra,0x4
    1eb2:	054080e7          	jalr	84(ra) # 5f02 <printf>
    1eb6:	4505                	li	a0,1
    1eb8:	00004097          	auipc	ra,0x4
    1ebc:	caa080e7          	jalr	-854(ra) # 5b62 <exit>
    1ec0:	054b7163          	bgeu	s6,s4,1f02 <createdelete+0x198>
    1ec4:	02055a63          	bgez	a0,1ef8 <createdelete+0x18e>
    1ec8:	2485                	addiw	s1,s1,1
    1eca:	0ff4f493          	andi	s1,s1,255
    1ece:	05548c63          	beq	s1,s5,1f26 <createdelete+0x1bc>
    1ed2:	f8940023          	sb	s1,-128(s0)
    1ed6:	f93400a3          	sb	s3,-127(s0)
    1eda:	4581                	li	a1,0
    1edc:	f8040513          	addi	a0,s0,-128
    1ee0:	00004097          	auipc	ra,0x4
    1ee4:	cc2080e7          	jalr	-830(ra) # 5ba2 <open>
    1ee8:	00090463          	beqz	s2,1ef0 <createdelete+0x186>
    1eec:	fd2bdae3          	bge	s7,s2,1ec0 <createdelete+0x156>
    1ef0:	fa0548e3          	bltz	a0,1ea0 <createdelete+0x136>
    1ef4:	014b7963          	bgeu	s6,s4,1f06 <createdelete+0x19c>
    1ef8:	00004097          	auipc	ra,0x4
    1efc:	c92080e7          	jalr	-878(ra) # 5b8a <close>
    1f00:	b7e1                	j	1ec8 <createdelete+0x15e>
    1f02:	fc0543e3          	bltz	a0,1ec8 <createdelete+0x15e>
    1f06:	f8040613          	addi	a2,s0,-128
    1f0a:	85e6                	mv	a1,s9
    1f0c:	00005517          	auipc	a0,0x5
    1f10:	cb450513          	addi	a0,a0,-844 # 6bc0 <malloc+0xc00>
    1f14:	00004097          	auipc	ra,0x4
    1f18:	fee080e7          	jalr	-18(ra) # 5f02 <printf>
    1f1c:	4505                	li	a0,1
    1f1e:	00004097          	auipc	ra,0x4
    1f22:	c44080e7          	jalr	-956(ra) # 5b62 <exit>
    1f26:	2905                	addiw	s2,s2,1
    1f28:	2a05                	addiw	s4,s4,1
    1f2a:	2985                	addiw	s3,s3,1
    1f2c:	0ff9f993          	andi	s3,s3,255
    1f30:	47d1                	li	a5,20
    1f32:	02f90a63          	beq	s2,a5,1f66 <createdelete+0x1fc>
    1f36:	84e2                	mv	s1,s8
    1f38:	bf69                	j	1ed2 <createdelete+0x168>
    1f3a:	2905                	addiw	s2,s2,1
    1f3c:	0ff97913          	andi	s2,s2,255
    1f40:	2985                	addiw	s3,s3,1
    1f42:	0ff9f993          	andi	s3,s3,255
    1f46:	03490863          	beq	s2,s4,1f76 <createdelete+0x20c>
    1f4a:	84d6                	mv	s1,s5
    1f4c:	f9240023          	sb	s2,-128(s0)
    1f50:	f93400a3          	sb	s3,-127(s0)
    1f54:	f8040513          	addi	a0,s0,-128
    1f58:	00004097          	auipc	ra,0x4
    1f5c:	c5a080e7          	jalr	-934(ra) # 5bb2 <unlink>
    1f60:	34fd                	addiw	s1,s1,-1
    1f62:	f4ed                	bnez	s1,1f4c <createdelete+0x1e2>
    1f64:	bfd9                	j	1f3a <createdelete+0x1d0>
    1f66:	03000993          	li	s3,48
    1f6a:	07000913          	li	s2,112
    1f6e:	4a91                	li	s5,4
    1f70:	08400a13          	li	s4,132
    1f74:	bfd9                	j	1f4a <createdelete+0x1e0>
    1f76:	60aa                	ld	ra,136(sp)
    1f78:	640a                	ld	s0,128(sp)
    1f7a:	74e6                	ld	s1,120(sp)
    1f7c:	7946                	ld	s2,112(sp)
    1f7e:	79a6                	ld	s3,104(sp)
    1f80:	7a06                	ld	s4,96(sp)
    1f82:	6ae6                	ld	s5,88(sp)
    1f84:	6b46                	ld	s6,80(sp)
    1f86:	6ba6                	ld	s7,72(sp)
    1f88:	6c06                	ld	s8,64(sp)
    1f8a:	7ce2                	ld	s9,56(sp)
    1f8c:	6149                	addi	sp,sp,144
    1f8e:	8082                	ret

0000000000001f90 <linkunlink>:
    1f90:	711d                	addi	sp,sp,-96
    1f92:	ec86                	sd	ra,88(sp)
    1f94:	e8a2                	sd	s0,80(sp)
    1f96:	e4a6                	sd	s1,72(sp)
    1f98:	e0ca                	sd	s2,64(sp)
    1f9a:	fc4e                	sd	s3,56(sp)
    1f9c:	f852                	sd	s4,48(sp)
    1f9e:	f456                	sd	s5,40(sp)
    1fa0:	f05a                	sd	s6,32(sp)
    1fa2:	ec5e                	sd	s7,24(sp)
    1fa4:	e862                	sd	s8,16(sp)
    1fa6:	e466                	sd	s9,8(sp)
    1fa8:	1080                	addi	s0,sp,96
    1faa:	84aa                	mv	s1,a0
    1fac:	00004517          	auipc	a0,0x4
    1fb0:	1cc50513          	addi	a0,a0,460 # 6178 <malloc+0x1b8>
    1fb4:	00004097          	auipc	ra,0x4
    1fb8:	bfe080e7          	jalr	-1026(ra) # 5bb2 <unlink>
    1fbc:	00004097          	auipc	ra,0x4
    1fc0:	b9e080e7          	jalr	-1122(ra) # 5b5a <fork>
    1fc4:	02054b63          	bltz	a0,1ffa <linkunlink+0x6a>
    1fc8:	8c2a                	mv	s8,a0
    1fca:	4c85                	li	s9,1
    1fcc:	e119                	bnez	a0,1fd2 <linkunlink+0x42>
    1fce:	06100c93          	li	s9,97
    1fd2:	06400493          	li	s1,100
    1fd6:	41c659b7          	lui	s3,0x41c65
    1fda:	e6d9899b          	addiw	s3,s3,-403
    1fde:	690d                	lui	s2,0x3
    1fe0:	0399091b          	addiw	s2,s2,57
    1fe4:	4a0d                	li	s4,3
    1fe6:	4b05                	li	s6,1
    1fe8:	00004a97          	auipc	s5,0x4
    1fec:	190a8a93          	addi	s5,s5,400 # 6178 <malloc+0x1b8>
    1ff0:	00005b97          	auipc	s7,0x5
    1ff4:	bf8b8b93          	addi	s7,s7,-1032 # 6be8 <malloc+0xc28>
    1ff8:	a091                	j	203c <linkunlink+0xac>
    1ffa:	85a6                	mv	a1,s1
    1ffc:	00005517          	auipc	a0,0x5
    2000:	99450513          	addi	a0,a0,-1644 # 6990 <malloc+0x9d0>
    2004:	00004097          	auipc	ra,0x4
    2008:	efe080e7          	jalr	-258(ra) # 5f02 <printf>
    200c:	4505                	li	a0,1
    200e:	00004097          	auipc	ra,0x4
    2012:	b54080e7          	jalr	-1196(ra) # 5b62 <exit>
    2016:	20200593          	li	a1,514
    201a:	8556                	mv	a0,s5
    201c:	00004097          	auipc	ra,0x4
    2020:	b86080e7          	jalr	-1146(ra) # 5ba2 <open>
    2024:	00004097          	auipc	ra,0x4
    2028:	b66080e7          	jalr	-1178(ra) # 5b8a <close>
    202c:	a031                	j	2038 <linkunlink+0xa8>
    202e:	8556                	mv	a0,s5
    2030:	00004097          	auipc	ra,0x4
    2034:	b82080e7          	jalr	-1150(ra) # 5bb2 <unlink>
    2038:	34fd                	addiw	s1,s1,-1
    203a:	c09d                	beqz	s1,2060 <linkunlink+0xd0>
    203c:	033c87bb          	mulw	a5,s9,s3
    2040:	012787bb          	addw	a5,a5,s2
    2044:	00078c9b          	sext.w	s9,a5
    2048:	0347f7bb          	remuw	a5,a5,s4
    204c:	d7e9                	beqz	a5,2016 <linkunlink+0x86>
    204e:	ff6790e3          	bne	a5,s6,202e <linkunlink+0x9e>
    2052:	85d6                	mv	a1,s5
    2054:	855e                	mv	a0,s7
    2056:	00004097          	auipc	ra,0x4
    205a:	b6c080e7          	jalr	-1172(ra) # 5bc2 <link>
    205e:	bfe9                	j	2038 <linkunlink+0xa8>
    2060:	020c0463          	beqz	s8,2088 <linkunlink+0xf8>
    2064:	4501                	li	a0,0
    2066:	00004097          	auipc	ra,0x4
    206a:	b04080e7          	jalr	-1276(ra) # 5b6a <wait>
    206e:	60e6                	ld	ra,88(sp)
    2070:	6446                	ld	s0,80(sp)
    2072:	64a6                	ld	s1,72(sp)
    2074:	6906                	ld	s2,64(sp)
    2076:	79e2                	ld	s3,56(sp)
    2078:	7a42                	ld	s4,48(sp)
    207a:	7aa2                	ld	s5,40(sp)
    207c:	7b02                	ld	s6,32(sp)
    207e:	6be2                	ld	s7,24(sp)
    2080:	6c42                	ld	s8,16(sp)
    2082:	6ca2                	ld	s9,8(sp)
    2084:	6125                	addi	sp,sp,96
    2086:	8082                	ret
    2088:	4501                	li	a0,0
    208a:	00004097          	auipc	ra,0x4
    208e:	ad8080e7          	jalr	-1320(ra) # 5b62 <exit>

0000000000002092 <forktest>:
    2092:	7179                	addi	sp,sp,-48
    2094:	f406                	sd	ra,40(sp)
    2096:	f022                	sd	s0,32(sp)
    2098:	ec26                	sd	s1,24(sp)
    209a:	e84a                	sd	s2,16(sp)
    209c:	e44e                	sd	s3,8(sp)
    209e:	1800                	addi	s0,sp,48
    20a0:	89aa                	mv	s3,a0
    20a2:	4481                	li	s1,0
    20a4:	3e800913          	li	s2,1000
    20a8:	00004097          	auipc	ra,0x4
    20ac:	ab2080e7          	jalr	-1358(ra) # 5b5a <fork>
    20b0:	02054863          	bltz	a0,20e0 <forktest+0x4e>
    20b4:	c115                	beqz	a0,20d8 <forktest+0x46>
    20b6:	2485                	addiw	s1,s1,1
    20b8:	ff2498e3          	bne	s1,s2,20a8 <forktest+0x16>
    20bc:	85ce                	mv	a1,s3
    20be:	00005517          	auipc	a0,0x5
    20c2:	b4a50513          	addi	a0,a0,-1206 # 6c08 <malloc+0xc48>
    20c6:	00004097          	auipc	ra,0x4
    20ca:	e3c080e7          	jalr	-452(ra) # 5f02 <printf>
    20ce:	4505                	li	a0,1
    20d0:	00004097          	auipc	ra,0x4
    20d4:	a92080e7          	jalr	-1390(ra) # 5b62 <exit>
    20d8:	00004097          	auipc	ra,0x4
    20dc:	a8a080e7          	jalr	-1398(ra) # 5b62 <exit>
    20e0:	cc9d                	beqz	s1,211e <forktest+0x8c>
    20e2:	3e800793          	li	a5,1000
    20e6:	fcf48be3          	beq	s1,a5,20bc <forktest+0x2a>
    20ea:	00905b63          	blez	s1,2100 <forktest+0x6e>
    20ee:	4501                	li	a0,0
    20f0:	00004097          	auipc	ra,0x4
    20f4:	a7a080e7          	jalr	-1414(ra) # 5b6a <wait>
    20f8:	04054163          	bltz	a0,213a <forktest+0xa8>
    20fc:	34fd                	addiw	s1,s1,-1
    20fe:	f8e5                	bnez	s1,20ee <forktest+0x5c>
    2100:	4501                	li	a0,0
    2102:	00004097          	auipc	ra,0x4
    2106:	a68080e7          	jalr	-1432(ra) # 5b6a <wait>
    210a:	57fd                	li	a5,-1
    210c:	04f51563          	bne	a0,a5,2156 <forktest+0xc4>
    2110:	70a2                	ld	ra,40(sp)
    2112:	7402                	ld	s0,32(sp)
    2114:	64e2                	ld	s1,24(sp)
    2116:	6942                	ld	s2,16(sp)
    2118:	69a2                	ld	s3,8(sp)
    211a:	6145                	addi	sp,sp,48
    211c:	8082                	ret
    211e:	85ce                	mv	a1,s3
    2120:	00005517          	auipc	a0,0x5
    2124:	ad050513          	addi	a0,a0,-1328 # 6bf0 <malloc+0xc30>
    2128:	00004097          	auipc	ra,0x4
    212c:	dda080e7          	jalr	-550(ra) # 5f02 <printf>
    2130:	4505                	li	a0,1
    2132:	00004097          	auipc	ra,0x4
    2136:	a30080e7          	jalr	-1488(ra) # 5b62 <exit>
    213a:	85ce                	mv	a1,s3
    213c:	00005517          	auipc	a0,0x5
    2140:	af450513          	addi	a0,a0,-1292 # 6c30 <malloc+0xc70>
    2144:	00004097          	auipc	ra,0x4
    2148:	dbe080e7          	jalr	-578(ra) # 5f02 <printf>
    214c:	4505                	li	a0,1
    214e:	00004097          	auipc	ra,0x4
    2152:	a14080e7          	jalr	-1516(ra) # 5b62 <exit>
    2156:	85ce                	mv	a1,s3
    2158:	00005517          	auipc	a0,0x5
    215c:	af050513          	addi	a0,a0,-1296 # 6c48 <malloc+0xc88>
    2160:	00004097          	auipc	ra,0x4
    2164:	da2080e7          	jalr	-606(ra) # 5f02 <printf>
    2168:	4505                	li	a0,1
    216a:	00004097          	auipc	ra,0x4
    216e:	9f8080e7          	jalr	-1544(ra) # 5b62 <exit>

0000000000002172 <kernmem>:
    2172:	715d                	addi	sp,sp,-80
    2174:	e486                	sd	ra,72(sp)
    2176:	e0a2                	sd	s0,64(sp)
    2178:	fc26                	sd	s1,56(sp)
    217a:	f84a                	sd	s2,48(sp)
    217c:	f44e                	sd	s3,40(sp)
    217e:	f052                	sd	s4,32(sp)
    2180:	ec56                	sd	s5,24(sp)
    2182:	0880                	addi	s0,sp,80
    2184:	8a2a                	mv	s4,a0
    2186:	4485                	li	s1,1
    2188:	04fe                	slli	s1,s1,0x1f
    218a:	5afd                	li	s5,-1
    218c:	69b1                	lui	s3,0xc
    218e:	35098993          	addi	s3,s3,848 # c350 <uninit+0x1df8>
    2192:	1003d937          	lui	s2,0x1003d
    2196:	090e                	slli	s2,s2,0x3
    2198:	48090913          	addi	s2,s2,1152 # 1003d480 <base+0x1002d818>
    219c:	00004097          	auipc	ra,0x4
    21a0:	9be080e7          	jalr	-1602(ra) # 5b5a <fork>
    21a4:	02054963          	bltz	a0,21d6 <kernmem+0x64>
    21a8:	c529                	beqz	a0,21f2 <kernmem+0x80>
    21aa:	fbc40513          	addi	a0,s0,-68
    21ae:	00004097          	auipc	ra,0x4
    21b2:	9bc080e7          	jalr	-1604(ra) # 5b6a <wait>
    21b6:	fbc42783          	lw	a5,-68(s0)
    21ba:	05579d63          	bne	a5,s5,2214 <kernmem+0xa2>
    21be:	94ce                	add	s1,s1,s3
    21c0:	fd249ee3          	bne	s1,s2,219c <kernmem+0x2a>
    21c4:	60a6                	ld	ra,72(sp)
    21c6:	6406                	ld	s0,64(sp)
    21c8:	74e2                	ld	s1,56(sp)
    21ca:	7942                	ld	s2,48(sp)
    21cc:	79a2                	ld	s3,40(sp)
    21ce:	7a02                	ld	s4,32(sp)
    21d0:	6ae2                	ld	s5,24(sp)
    21d2:	6161                	addi	sp,sp,80
    21d4:	8082                	ret
    21d6:	85d2                	mv	a1,s4
    21d8:	00004517          	auipc	a0,0x4
    21dc:	7b850513          	addi	a0,a0,1976 # 6990 <malloc+0x9d0>
    21e0:	00004097          	auipc	ra,0x4
    21e4:	d22080e7          	jalr	-734(ra) # 5f02 <printf>
    21e8:	4505                	li	a0,1
    21ea:	00004097          	auipc	ra,0x4
    21ee:	978080e7          	jalr	-1672(ra) # 5b62 <exit>
    21f2:	0004c683          	lbu	a3,0(s1)
    21f6:	8626                	mv	a2,s1
    21f8:	85d2                	mv	a1,s4
    21fa:	00005517          	auipc	a0,0x5
    21fe:	a6650513          	addi	a0,a0,-1434 # 6c60 <malloc+0xca0>
    2202:	00004097          	auipc	ra,0x4
    2206:	d00080e7          	jalr	-768(ra) # 5f02 <printf>
    220a:	4505                	li	a0,1
    220c:	00004097          	auipc	ra,0x4
    2210:	956080e7          	jalr	-1706(ra) # 5b62 <exit>
    2214:	4505                	li	a0,1
    2216:	00004097          	auipc	ra,0x4
    221a:	94c080e7          	jalr	-1716(ra) # 5b62 <exit>

000000000000221e <MAXVAplus>:
    221e:	7179                	addi	sp,sp,-48
    2220:	f406                	sd	ra,40(sp)
    2222:	f022                	sd	s0,32(sp)
    2224:	ec26                	sd	s1,24(sp)
    2226:	e84a                	sd	s2,16(sp)
    2228:	1800                	addi	s0,sp,48
    222a:	4785                	li	a5,1
    222c:	179a                	slli	a5,a5,0x26
    222e:	fcf43c23          	sd	a5,-40(s0)
    2232:	fd843783          	ld	a5,-40(s0)
    2236:	cf85                	beqz	a5,226e <MAXVAplus+0x50>
    2238:	892a                	mv	s2,a0
    223a:	54fd                	li	s1,-1
    223c:	00004097          	auipc	ra,0x4
    2240:	91e080e7          	jalr	-1762(ra) # 5b5a <fork>
    2244:	02054b63          	bltz	a0,227a <MAXVAplus+0x5c>
    2248:	c539                	beqz	a0,2296 <MAXVAplus+0x78>
    224a:	fd440513          	addi	a0,s0,-44
    224e:	00004097          	auipc	ra,0x4
    2252:	91c080e7          	jalr	-1764(ra) # 5b6a <wait>
    2256:	fd442783          	lw	a5,-44(s0)
    225a:	06979463          	bne	a5,s1,22c2 <MAXVAplus+0xa4>
    225e:	fd843783          	ld	a5,-40(s0)
    2262:	0786                	slli	a5,a5,0x1
    2264:	fcf43c23          	sd	a5,-40(s0)
    2268:	fd843783          	ld	a5,-40(s0)
    226c:	fbe1                	bnez	a5,223c <MAXVAplus+0x1e>
    226e:	70a2                	ld	ra,40(sp)
    2270:	7402                	ld	s0,32(sp)
    2272:	64e2                	ld	s1,24(sp)
    2274:	6942                	ld	s2,16(sp)
    2276:	6145                	addi	sp,sp,48
    2278:	8082                	ret
    227a:	85ca                	mv	a1,s2
    227c:	00004517          	auipc	a0,0x4
    2280:	71450513          	addi	a0,a0,1812 # 6990 <malloc+0x9d0>
    2284:	00004097          	auipc	ra,0x4
    2288:	c7e080e7          	jalr	-898(ra) # 5f02 <printf>
    228c:	4505                	li	a0,1
    228e:	00004097          	auipc	ra,0x4
    2292:	8d4080e7          	jalr	-1836(ra) # 5b62 <exit>
    2296:	fd843783          	ld	a5,-40(s0)
    229a:	06300713          	li	a4,99
    229e:	00e78023          	sb	a4,0(a5)
    22a2:	fd843603          	ld	a2,-40(s0)
    22a6:	85ca                	mv	a1,s2
    22a8:	00005517          	auipc	a0,0x5
    22ac:	9d850513          	addi	a0,a0,-1576 # 6c80 <malloc+0xcc0>
    22b0:	00004097          	auipc	ra,0x4
    22b4:	c52080e7          	jalr	-942(ra) # 5f02 <printf>
    22b8:	4505                	li	a0,1
    22ba:	00004097          	auipc	ra,0x4
    22be:	8a8080e7          	jalr	-1880(ra) # 5b62 <exit>
    22c2:	4505                	li	a0,1
    22c4:	00004097          	auipc	ra,0x4
    22c8:	89e080e7          	jalr	-1890(ra) # 5b62 <exit>

00000000000022cc <bigargtest>:
    22cc:	7179                	addi	sp,sp,-48
    22ce:	f406                	sd	ra,40(sp)
    22d0:	f022                	sd	s0,32(sp)
    22d2:	ec26                	sd	s1,24(sp)
    22d4:	1800                	addi	s0,sp,48
    22d6:	84aa                	mv	s1,a0
    22d8:	00005517          	auipc	a0,0x5
    22dc:	9c050513          	addi	a0,a0,-1600 # 6c98 <malloc+0xcd8>
    22e0:	00004097          	auipc	ra,0x4
    22e4:	8d2080e7          	jalr	-1838(ra) # 5bb2 <unlink>
    22e8:	00004097          	auipc	ra,0x4
    22ec:	872080e7          	jalr	-1934(ra) # 5b5a <fork>
    22f0:	c121                	beqz	a0,2330 <bigargtest+0x64>
    22f2:	0a054063          	bltz	a0,2392 <bigargtest+0xc6>
    22f6:	fdc40513          	addi	a0,s0,-36
    22fa:	00004097          	auipc	ra,0x4
    22fe:	870080e7          	jalr	-1936(ra) # 5b6a <wait>
    2302:	fdc42503          	lw	a0,-36(s0)
    2306:	e545                	bnez	a0,23ae <bigargtest+0xe2>
    2308:	4581                	li	a1,0
    230a:	00005517          	auipc	a0,0x5
    230e:	98e50513          	addi	a0,a0,-1650 # 6c98 <malloc+0xcd8>
    2312:	00004097          	auipc	ra,0x4
    2316:	890080e7          	jalr	-1904(ra) # 5ba2 <open>
    231a:	08054e63          	bltz	a0,23b6 <bigargtest+0xea>
    231e:	00004097          	auipc	ra,0x4
    2322:	86c080e7          	jalr	-1940(ra) # 5b8a <close>
    2326:	70a2                	ld	ra,40(sp)
    2328:	7402                	ld	s0,32(sp)
    232a:	64e2                	ld	s1,24(sp)
    232c:	6145                	addi	sp,sp,48
    232e:	8082                	ret
    2330:	00007797          	auipc	a5,0x7
    2334:	12078793          	addi	a5,a5,288 # 9450 <args.1828>
    2338:	00007697          	auipc	a3,0x7
    233c:	21068693          	addi	a3,a3,528 # 9548 <args.1828+0xf8>
    2340:	00005717          	auipc	a4,0x5
    2344:	96870713          	addi	a4,a4,-1688 # 6ca8 <malloc+0xce8>
    2348:	e398                	sd	a4,0(a5)
    234a:	07a1                	addi	a5,a5,8
    234c:	fed79ee3          	bne	a5,a3,2348 <bigargtest+0x7c>
    2350:	00007597          	auipc	a1,0x7
    2354:	10058593          	addi	a1,a1,256 # 9450 <args.1828>
    2358:	0e05bc23          	sd	zero,248(a1)
    235c:	00004517          	auipc	a0,0x4
    2360:	dac50513          	addi	a0,a0,-596 # 6108 <malloc+0x148>
    2364:	00004097          	auipc	ra,0x4
    2368:	836080e7          	jalr	-1994(ra) # 5b9a <exec>
    236c:	20000593          	li	a1,512
    2370:	00005517          	auipc	a0,0x5
    2374:	92850513          	addi	a0,a0,-1752 # 6c98 <malloc+0xcd8>
    2378:	00004097          	auipc	ra,0x4
    237c:	82a080e7          	jalr	-2006(ra) # 5ba2 <open>
    2380:	00004097          	auipc	ra,0x4
    2384:	80a080e7          	jalr	-2038(ra) # 5b8a <close>
    2388:	4501                	li	a0,0
    238a:	00003097          	auipc	ra,0x3
    238e:	7d8080e7          	jalr	2008(ra) # 5b62 <exit>
    2392:	85a6                	mv	a1,s1
    2394:	00005517          	auipc	a0,0x5
    2398:	9f450513          	addi	a0,a0,-1548 # 6d88 <malloc+0xdc8>
    239c:	00004097          	auipc	ra,0x4
    23a0:	b66080e7          	jalr	-1178(ra) # 5f02 <printf>
    23a4:	4505                	li	a0,1
    23a6:	00003097          	auipc	ra,0x3
    23aa:	7bc080e7          	jalr	1980(ra) # 5b62 <exit>
    23ae:	00003097          	auipc	ra,0x3
    23b2:	7b4080e7          	jalr	1972(ra) # 5b62 <exit>
    23b6:	85a6                	mv	a1,s1
    23b8:	00005517          	auipc	a0,0x5
    23bc:	9f050513          	addi	a0,a0,-1552 # 6da8 <malloc+0xde8>
    23c0:	00004097          	auipc	ra,0x4
    23c4:	b42080e7          	jalr	-1214(ra) # 5f02 <printf>
    23c8:	4505                	li	a0,1
    23ca:	00003097          	auipc	ra,0x3
    23ce:	798080e7          	jalr	1944(ra) # 5b62 <exit>

00000000000023d2 <stacktest>:
    23d2:	7179                	addi	sp,sp,-48
    23d4:	f406                	sd	ra,40(sp)
    23d6:	f022                	sd	s0,32(sp)
    23d8:	ec26                	sd	s1,24(sp)
    23da:	1800                	addi	s0,sp,48
    23dc:	84aa                	mv	s1,a0
    23de:	00003097          	auipc	ra,0x3
    23e2:	77c080e7          	jalr	1916(ra) # 5b5a <fork>
    23e6:	c115                	beqz	a0,240a <stacktest+0x38>
    23e8:	04054463          	bltz	a0,2430 <stacktest+0x5e>
    23ec:	fdc40513          	addi	a0,s0,-36
    23f0:	00003097          	auipc	ra,0x3
    23f4:	77a080e7          	jalr	1914(ra) # 5b6a <wait>
    23f8:	fdc42503          	lw	a0,-36(s0)
    23fc:	57fd                	li	a5,-1
    23fe:	04f50763          	beq	a0,a5,244c <stacktest+0x7a>
    2402:	00003097          	auipc	ra,0x3
    2406:	760080e7          	jalr	1888(ra) # 5b62 <exit>
    240a:	870a                	mv	a4,sp
    240c:	77fd                	lui	a5,0xfffff
    240e:	97ba                	add	a5,a5,a4
    2410:	0007c603          	lbu	a2,0(a5) # fffffffffffff000 <base+0xfffffffffffef398>
    2414:	85a6                	mv	a1,s1
    2416:	00005517          	auipc	a0,0x5
    241a:	9b250513          	addi	a0,a0,-1614 # 6dc8 <malloc+0xe08>
    241e:	00004097          	auipc	ra,0x4
    2422:	ae4080e7          	jalr	-1308(ra) # 5f02 <printf>
    2426:	4505                	li	a0,1
    2428:	00003097          	auipc	ra,0x3
    242c:	73a080e7          	jalr	1850(ra) # 5b62 <exit>
    2430:	85a6                	mv	a1,s1
    2432:	00004517          	auipc	a0,0x4
    2436:	55e50513          	addi	a0,a0,1374 # 6990 <malloc+0x9d0>
    243a:	00004097          	auipc	ra,0x4
    243e:	ac8080e7          	jalr	-1336(ra) # 5f02 <printf>
    2442:	4505                	li	a0,1
    2444:	00003097          	auipc	ra,0x3
    2448:	71e080e7          	jalr	1822(ra) # 5b62 <exit>
    244c:	4501                	li	a0,0
    244e:	00003097          	auipc	ra,0x3
    2452:	714080e7          	jalr	1812(ra) # 5b62 <exit>

0000000000002456 <manywrites>:
    2456:	711d                	addi	sp,sp,-96
    2458:	ec86                	sd	ra,88(sp)
    245a:	e8a2                	sd	s0,80(sp)
    245c:	e4a6                	sd	s1,72(sp)
    245e:	e0ca                	sd	s2,64(sp)
    2460:	fc4e                	sd	s3,56(sp)
    2462:	f852                	sd	s4,48(sp)
    2464:	f456                	sd	s5,40(sp)
    2466:	f05a                	sd	s6,32(sp)
    2468:	ec5e                	sd	s7,24(sp)
    246a:	1080                	addi	s0,sp,96
    246c:	8aaa                	mv	s5,a0
    246e:	4901                	li	s2,0
    2470:	4991                	li	s3,4
    2472:	00003097          	auipc	ra,0x3
    2476:	6e8080e7          	jalr	1768(ra) # 5b5a <fork>
    247a:	84aa                	mv	s1,a0
    247c:	02054963          	bltz	a0,24ae <manywrites+0x58>
    2480:	c521                	beqz	a0,24c8 <manywrites+0x72>
    2482:	2905                	addiw	s2,s2,1
    2484:	ff3917e3          	bne	s2,s3,2472 <manywrites+0x1c>
    2488:	4491                	li	s1,4
    248a:	fa042423          	sw	zero,-88(s0)
    248e:	fa840513          	addi	a0,s0,-88
    2492:	00003097          	auipc	ra,0x3
    2496:	6d8080e7          	jalr	1752(ra) # 5b6a <wait>
    249a:	fa842503          	lw	a0,-88(s0)
    249e:	ed6d                	bnez	a0,2598 <manywrites+0x142>
    24a0:	34fd                	addiw	s1,s1,-1
    24a2:	f4e5                	bnez	s1,248a <manywrites+0x34>
    24a4:	4501                	li	a0,0
    24a6:	00003097          	auipc	ra,0x3
    24aa:	6bc080e7          	jalr	1724(ra) # 5b62 <exit>
    24ae:	00005517          	auipc	a0,0x5
    24b2:	8ea50513          	addi	a0,a0,-1814 # 6d98 <malloc+0xdd8>
    24b6:	00004097          	auipc	ra,0x4
    24ba:	a4c080e7          	jalr	-1460(ra) # 5f02 <printf>
    24be:	4505                	li	a0,1
    24c0:	00003097          	auipc	ra,0x3
    24c4:	6a2080e7          	jalr	1698(ra) # 5b62 <exit>
    24c8:	06200793          	li	a5,98
    24cc:	faf40423          	sb	a5,-88(s0)
    24d0:	0619079b          	addiw	a5,s2,97
    24d4:	faf404a3          	sb	a5,-87(s0)
    24d8:	fa040523          	sb	zero,-86(s0)
    24dc:	fa840513          	addi	a0,s0,-88
    24e0:	00003097          	auipc	ra,0x3
    24e4:	6d2080e7          	jalr	1746(ra) # 5bb2 <unlink>
    24e8:	4b79                	li	s6,30
    24ea:	0000ab97          	auipc	s7,0xa
    24ee:	77eb8b93          	addi	s7,s7,1918 # cc68 <buf>
    24f2:	8a26                	mv	s4,s1
    24f4:	02094e63          	bltz	s2,2530 <manywrites+0xda>
    24f8:	20200593          	li	a1,514
    24fc:	fa840513          	addi	a0,s0,-88
    2500:	00003097          	auipc	ra,0x3
    2504:	6a2080e7          	jalr	1698(ra) # 5ba2 <open>
    2508:	89aa                	mv	s3,a0
    250a:	04054763          	bltz	a0,2558 <manywrites+0x102>
    250e:	660d                	lui	a2,0x3
    2510:	85de                	mv	a1,s7
    2512:	00003097          	auipc	ra,0x3
    2516:	670080e7          	jalr	1648(ra) # 5b82 <write>
    251a:	678d                	lui	a5,0x3
    251c:	04f51e63          	bne	a0,a5,2578 <manywrites+0x122>
    2520:	854e                	mv	a0,s3
    2522:	00003097          	auipc	ra,0x3
    2526:	668080e7          	jalr	1640(ra) # 5b8a <close>
    252a:	2a05                	addiw	s4,s4,1
    252c:	fd4956e3          	bge	s2,s4,24f8 <manywrites+0xa2>
    2530:	fa840513          	addi	a0,s0,-88
    2534:	00003097          	auipc	ra,0x3
    2538:	67e080e7          	jalr	1662(ra) # 5bb2 <unlink>
    253c:	3b7d                	addiw	s6,s6,-1
    253e:	fa0b1ae3          	bnez	s6,24f2 <manywrites+0x9c>
    2542:	fa840513          	addi	a0,s0,-88
    2546:	00003097          	auipc	ra,0x3
    254a:	66c080e7          	jalr	1644(ra) # 5bb2 <unlink>
    254e:	4501                	li	a0,0
    2550:	00003097          	auipc	ra,0x3
    2554:	612080e7          	jalr	1554(ra) # 5b62 <exit>
    2558:	fa840613          	addi	a2,s0,-88
    255c:	85d6                	mv	a1,s5
    255e:	00005517          	auipc	a0,0x5
    2562:	89250513          	addi	a0,a0,-1902 # 6df0 <malloc+0xe30>
    2566:	00004097          	auipc	ra,0x4
    256a:	99c080e7          	jalr	-1636(ra) # 5f02 <printf>
    256e:	4505                	li	a0,1
    2570:	00003097          	auipc	ra,0x3
    2574:	5f2080e7          	jalr	1522(ra) # 5b62 <exit>
    2578:	86aa                	mv	a3,a0
    257a:	660d                	lui	a2,0x3
    257c:	85d6                	mv	a1,s5
    257e:	00004517          	auipc	a0,0x4
    2582:	c5a50513          	addi	a0,a0,-934 # 61d8 <malloc+0x218>
    2586:	00004097          	auipc	ra,0x4
    258a:	97c080e7          	jalr	-1668(ra) # 5f02 <printf>
    258e:	4505                	li	a0,1
    2590:	00003097          	auipc	ra,0x3
    2594:	5d2080e7          	jalr	1490(ra) # 5b62 <exit>
    2598:	00003097          	auipc	ra,0x3
    259c:	5ca080e7          	jalr	1482(ra) # 5b62 <exit>

00000000000025a0 <copyinstr3>:
    25a0:	7179                	addi	sp,sp,-48
    25a2:	f406                	sd	ra,40(sp)
    25a4:	f022                	sd	s0,32(sp)
    25a6:	ec26                	sd	s1,24(sp)
    25a8:	1800                	addi	s0,sp,48
    25aa:	6509                	lui	a0,0x2
    25ac:	00003097          	auipc	ra,0x3
    25b0:	63e080e7          	jalr	1598(ra) # 5bea <sbrk>
    25b4:	4501                	li	a0,0
    25b6:	00003097          	auipc	ra,0x3
    25ba:	634080e7          	jalr	1588(ra) # 5bea <sbrk>
    25be:	03451793          	slli	a5,a0,0x34
    25c2:	e3c9                	bnez	a5,2644 <copyinstr3+0xa4>
    25c4:	4501                	li	a0,0
    25c6:	00003097          	auipc	ra,0x3
    25ca:	624080e7          	jalr	1572(ra) # 5bea <sbrk>
    25ce:	03451793          	slli	a5,a0,0x34
    25d2:	e3d9                	bnez	a5,2658 <copyinstr3+0xb8>
    25d4:	fff50493          	addi	s1,a0,-1 # 1fff <linkunlink+0x6f>
    25d8:	07800793          	li	a5,120
    25dc:	fef50fa3          	sb	a5,-1(a0)
    25e0:	8526                	mv	a0,s1
    25e2:	00003097          	auipc	ra,0x3
    25e6:	5d0080e7          	jalr	1488(ra) # 5bb2 <unlink>
    25ea:	57fd                	li	a5,-1
    25ec:	08f51363          	bne	a0,a5,2672 <copyinstr3+0xd2>
    25f0:	20100593          	li	a1,513
    25f4:	8526                	mv	a0,s1
    25f6:	00003097          	auipc	ra,0x3
    25fa:	5ac080e7          	jalr	1452(ra) # 5ba2 <open>
    25fe:	57fd                	li	a5,-1
    2600:	08f51863          	bne	a0,a5,2690 <copyinstr3+0xf0>
    2604:	85a6                	mv	a1,s1
    2606:	8526                	mv	a0,s1
    2608:	00003097          	auipc	ra,0x3
    260c:	5ba080e7          	jalr	1466(ra) # 5bc2 <link>
    2610:	57fd                	li	a5,-1
    2612:	08f51e63          	bne	a0,a5,26ae <copyinstr3+0x10e>
    2616:	00005797          	auipc	a5,0x5
    261a:	4d278793          	addi	a5,a5,1234 # 7ae8 <malloc+0x1b28>
    261e:	fcf43823          	sd	a5,-48(s0)
    2622:	fc043c23          	sd	zero,-40(s0)
    2626:	fd040593          	addi	a1,s0,-48
    262a:	8526                	mv	a0,s1
    262c:	00003097          	auipc	ra,0x3
    2630:	56e080e7          	jalr	1390(ra) # 5b9a <exec>
    2634:	57fd                	li	a5,-1
    2636:	08f51c63          	bne	a0,a5,26ce <copyinstr3+0x12e>
    263a:	70a2                	ld	ra,40(sp)
    263c:	7402                	ld	s0,32(sp)
    263e:	64e2                	ld	s1,24(sp)
    2640:	6145                	addi	sp,sp,48
    2642:	8082                	ret
    2644:	0347d513          	srli	a0,a5,0x34
    2648:	6785                	lui	a5,0x1
    264a:	40a7853b          	subw	a0,a5,a0
    264e:	00003097          	auipc	ra,0x3
    2652:	59c080e7          	jalr	1436(ra) # 5bea <sbrk>
    2656:	b7bd                	j	25c4 <copyinstr3+0x24>
    2658:	00004517          	auipc	a0,0x4
    265c:	7b050513          	addi	a0,a0,1968 # 6e08 <malloc+0xe48>
    2660:	00004097          	auipc	ra,0x4
    2664:	8a2080e7          	jalr	-1886(ra) # 5f02 <printf>
    2668:	4505                	li	a0,1
    266a:	00003097          	auipc	ra,0x3
    266e:	4f8080e7          	jalr	1272(ra) # 5b62 <exit>
    2672:	862a                	mv	a2,a0
    2674:	85a6                	mv	a1,s1
    2676:	00004517          	auipc	a0,0x4
    267a:	23a50513          	addi	a0,a0,570 # 68b0 <malloc+0x8f0>
    267e:	00004097          	auipc	ra,0x4
    2682:	884080e7          	jalr	-1916(ra) # 5f02 <printf>
    2686:	4505                	li	a0,1
    2688:	00003097          	auipc	ra,0x3
    268c:	4da080e7          	jalr	1242(ra) # 5b62 <exit>
    2690:	862a                	mv	a2,a0
    2692:	85a6                	mv	a1,s1
    2694:	00004517          	auipc	a0,0x4
    2698:	23c50513          	addi	a0,a0,572 # 68d0 <malloc+0x910>
    269c:	00004097          	auipc	ra,0x4
    26a0:	866080e7          	jalr	-1946(ra) # 5f02 <printf>
    26a4:	4505                	li	a0,1
    26a6:	00003097          	auipc	ra,0x3
    26aa:	4bc080e7          	jalr	1212(ra) # 5b62 <exit>
    26ae:	86aa                	mv	a3,a0
    26b0:	8626                	mv	a2,s1
    26b2:	85a6                	mv	a1,s1
    26b4:	00004517          	auipc	a0,0x4
    26b8:	23c50513          	addi	a0,a0,572 # 68f0 <malloc+0x930>
    26bc:	00004097          	auipc	ra,0x4
    26c0:	846080e7          	jalr	-1978(ra) # 5f02 <printf>
    26c4:	4505                	li	a0,1
    26c6:	00003097          	auipc	ra,0x3
    26ca:	49c080e7          	jalr	1180(ra) # 5b62 <exit>
    26ce:	567d                	li	a2,-1
    26d0:	85a6                	mv	a1,s1
    26d2:	00004517          	auipc	a0,0x4
    26d6:	24650513          	addi	a0,a0,582 # 6918 <malloc+0x958>
    26da:	00004097          	auipc	ra,0x4
    26de:	828080e7          	jalr	-2008(ra) # 5f02 <printf>
    26e2:	4505                	li	a0,1
    26e4:	00003097          	auipc	ra,0x3
    26e8:	47e080e7          	jalr	1150(ra) # 5b62 <exit>

00000000000026ec <rwsbrk>:
    26ec:	1101                	addi	sp,sp,-32
    26ee:	ec06                	sd	ra,24(sp)
    26f0:	e822                	sd	s0,16(sp)
    26f2:	e426                	sd	s1,8(sp)
    26f4:	e04a                	sd	s2,0(sp)
    26f6:	1000                	addi	s0,sp,32
    26f8:	6509                	lui	a0,0x2
    26fa:	00003097          	auipc	ra,0x3
    26fe:	4f0080e7          	jalr	1264(ra) # 5bea <sbrk>
    2702:	57fd                	li	a5,-1
    2704:	06f50363          	beq	a0,a5,276a <rwsbrk+0x7e>
    2708:	84aa                	mv	s1,a0
    270a:	7579                	lui	a0,0xffffe
    270c:	00003097          	auipc	ra,0x3
    2710:	4de080e7          	jalr	1246(ra) # 5bea <sbrk>
    2714:	57fd                	li	a5,-1
    2716:	06f50763          	beq	a0,a5,2784 <rwsbrk+0x98>
    271a:	20100593          	li	a1,513
    271e:	00004517          	auipc	a0,0x4
    2722:	72a50513          	addi	a0,a0,1834 # 6e48 <malloc+0xe88>
    2726:	00003097          	auipc	ra,0x3
    272a:	47c080e7          	jalr	1148(ra) # 5ba2 <open>
    272e:	892a                	mv	s2,a0
    2730:	06054763          	bltz	a0,279e <rwsbrk+0xb2>
    2734:	6505                	lui	a0,0x1
    2736:	94aa                	add	s1,s1,a0
    2738:	40000613          	li	a2,1024
    273c:	85a6                	mv	a1,s1
    273e:	854a                	mv	a0,s2
    2740:	00003097          	auipc	ra,0x3
    2744:	442080e7          	jalr	1090(ra) # 5b82 <write>
    2748:	862a                	mv	a2,a0
    274a:	06054763          	bltz	a0,27b8 <rwsbrk+0xcc>
    274e:	85a6                	mv	a1,s1
    2750:	00004517          	auipc	a0,0x4
    2754:	71850513          	addi	a0,a0,1816 # 6e68 <malloc+0xea8>
    2758:	00003097          	auipc	ra,0x3
    275c:	7aa080e7          	jalr	1962(ra) # 5f02 <printf>
    2760:	4505                	li	a0,1
    2762:	00003097          	auipc	ra,0x3
    2766:	400080e7          	jalr	1024(ra) # 5b62 <exit>
    276a:	00004517          	auipc	a0,0x4
    276e:	6a650513          	addi	a0,a0,1702 # 6e10 <malloc+0xe50>
    2772:	00003097          	auipc	ra,0x3
    2776:	790080e7          	jalr	1936(ra) # 5f02 <printf>
    277a:	4505                	li	a0,1
    277c:	00003097          	auipc	ra,0x3
    2780:	3e6080e7          	jalr	998(ra) # 5b62 <exit>
    2784:	00004517          	auipc	a0,0x4
    2788:	6a450513          	addi	a0,a0,1700 # 6e28 <malloc+0xe68>
    278c:	00003097          	auipc	ra,0x3
    2790:	776080e7          	jalr	1910(ra) # 5f02 <printf>
    2794:	4505                	li	a0,1
    2796:	00003097          	auipc	ra,0x3
    279a:	3cc080e7          	jalr	972(ra) # 5b62 <exit>
    279e:	00004517          	auipc	a0,0x4
    27a2:	6b250513          	addi	a0,a0,1714 # 6e50 <malloc+0xe90>
    27a6:	00003097          	auipc	ra,0x3
    27aa:	75c080e7          	jalr	1884(ra) # 5f02 <printf>
    27ae:	4505                	li	a0,1
    27b0:	00003097          	auipc	ra,0x3
    27b4:	3b2080e7          	jalr	946(ra) # 5b62 <exit>
    27b8:	854a                	mv	a0,s2
    27ba:	00003097          	auipc	ra,0x3
    27be:	3d0080e7          	jalr	976(ra) # 5b8a <close>
    27c2:	00004517          	auipc	a0,0x4
    27c6:	68650513          	addi	a0,a0,1670 # 6e48 <malloc+0xe88>
    27ca:	00003097          	auipc	ra,0x3
    27ce:	3e8080e7          	jalr	1000(ra) # 5bb2 <unlink>
    27d2:	4581                	li	a1,0
    27d4:	00004517          	auipc	a0,0x4
    27d8:	b0c50513          	addi	a0,a0,-1268 # 62e0 <malloc+0x320>
    27dc:	00003097          	auipc	ra,0x3
    27e0:	3c6080e7          	jalr	966(ra) # 5ba2 <open>
    27e4:	892a                	mv	s2,a0
    27e6:	02054963          	bltz	a0,2818 <rwsbrk+0x12c>
    27ea:	4629                	li	a2,10
    27ec:	85a6                	mv	a1,s1
    27ee:	00003097          	auipc	ra,0x3
    27f2:	38c080e7          	jalr	908(ra) # 5b7a <read>
    27f6:	862a                	mv	a2,a0
    27f8:	02054d63          	bltz	a0,2832 <rwsbrk+0x146>
    27fc:	85a6                	mv	a1,s1
    27fe:	00004517          	auipc	a0,0x4
    2802:	69a50513          	addi	a0,a0,1690 # 6e98 <malloc+0xed8>
    2806:	00003097          	auipc	ra,0x3
    280a:	6fc080e7          	jalr	1788(ra) # 5f02 <printf>
    280e:	4505                	li	a0,1
    2810:	00003097          	auipc	ra,0x3
    2814:	352080e7          	jalr	850(ra) # 5b62 <exit>
    2818:	00004517          	auipc	a0,0x4
    281c:	63850513          	addi	a0,a0,1592 # 6e50 <malloc+0xe90>
    2820:	00003097          	auipc	ra,0x3
    2824:	6e2080e7          	jalr	1762(ra) # 5f02 <printf>
    2828:	4505                	li	a0,1
    282a:	00003097          	auipc	ra,0x3
    282e:	338080e7          	jalr	824(ra) # 5b62 <exit>
    2832:	854a                	mv	a0,s2
    2834:	00003097          	auipc	ra,0x3
    2838:	356080e7          	jalr	854(ra) # 5b8a <close>
    283c:	4501                	li	a0,0
    283e:	00003097          	auipc	ra,0x3
    2842:	324080e7          	jalr	804(ra) # 5b62 <exit>

0000000000002846 <sbrkbasic>:
    2846:	715d                	addi	sp,sp,-80
    2848:	e486                	sd	ra,72(sp)
    284a:	e0a2                	sd	s0,64(sp)
    284c:	fc26                	sd	s1,56(sp)
    284e:	f84a                	sd	s2,48(sp)
    2850:	f44e                	sd	s3,40(sp)
    2852:	f052                	sd	s4,32(sp)
    2854:	ec56                	sd	s5,24(sp)
    2856:	0880                	addi	s0,sp,80
    2858:	8a2a                	mv	s4,a0
    285a:	00003097          	auipc	ra,0x3
    285e:	300080e7          	jalr	768(ra) # 5b5a <fork>
    2862:	02054c63          	bltz	a0,289a <sbrkbasic+0x54>
    2866:	ed21                	bnez	a0,28be <sbrkbasic+0x78>
    2868:	40000537          	lui	a0,0x40000
    286c:	00003097          	auipc	ra,0x3
    2870:	37e080e7          	jalr	894(ra) # 5bea <sbrk>
    2874:	57fd                	li	a5,-1
    2876:	02f50f63          	beq	a0,a5,28b4 <sbrkbasic+0x6e>
    287a:	400007b7          	lui	a5,0x40000
    287e:	97aa                	add	a5,a5,a0
    2880:	06300693          	li	a3,99
    2884:	6705                	lui	a4,0x1
    2886:	00d50023          	sb	a3,0(a0) # 40000000 <base+0x3fff0398>
    288a:	953a                	add	a0,a0,a4
    288c:	fef51de3          	bne	a0,a5,2886 <sbrkbasic+0x40>
    2890:	4505                	li	a0,1
    2892:	00003097          	auipc	ra,0x3
    2896:	2d0080e7          	jalr	720(ra) # 5b62 <exit>
    289a:	00004517          	auipc	a0,0x4
    289e:	62650513          	addi	a0,a0,1574 # 6ec0 <malloc+0xf00>
    28a2:	00003097          	auipc	ra,0x3
    28a6:	660080e7          	jalr	1632(ra) # 5f02 <printf>
    28aa:	4505                	li	a0,1
    28ac:	00003097          	auipc	ra,0x3
    28b0:	2b6080e7          	jalr	694(ra) # 5b62 <exit>
    28b4:	4501                	li	a0,0
    28b6:	00003097          	auipc	ra,0x3
    28ba:	2ac080e7          	jalr	684(ra) # 5b62 <exit>
    28be:	fbc40513          	addi	a0,s0,-68
    28c2:	00003097          	auipc	ra,0x3
    28c6:	2a8080e7          	jalr	680(ra) # 5b6a <wait>
    28ca:	fbc42703          	lw	a4,-68(s0)
    28ce:	4785                	li	a5,1
    28d0:	00f70e63          	beq	a4,a5,28ec <sbrkbasic+0xa6>
    28d4:	4501                	li	a0,0
    28d6:	00003097          	auipc	ra,0x3
    28da:	314080e7          	jalr	788(ra) # 5bea <sbrk>
    28de:	84aa                	mv	s1,a0
    28e0:	4901                	li	s2,0
    28e2:	4a85                	li	s5,1
    28e4:	6985                	lui	s3,0x1
    28e6:	38898993          	addi	s3,s3,904 # 1388 <badarg+0x3c>
    28ea:	a005                	j	290a <sbrkbasic+0xc4>
    28ec:	85d2                	mv	a1,s4
    28ee:	00004517          	auipc	a0,0x4
    28f2:	5f250513          	addi	a0,a0,1522 # 6ee0 <malloc+0xf20>
    28f6:	00003097          	auipc	ra,0x3
    28fa:	60c080e7          	jalr	1548(ra) # 5f02 <printf>
    28fe:	4505                	li	a0,1
    2900:	00003097          	auipc	ra,0x3
    2904:	262080e7          	jalr	610(ra) # 5b62 <exit>
    2908:	84be                	mv	s1,a5
    290a:	4505                	li	a0,1
    290c:	00003097          	auipc	ra,0x3
    2910:	2de080e7          	jalr	734(ra) # 5bea <sbrk>
    2914:	04951b63          	bne	a0,s1,296a <sbrkbasic+0x124>
    2918:	01548023          	sb	s5,0(s1)
    291c:	00148793          	addi	a5,s1,1
    2920:	2905                	addiw	s2,s2,1
    2922:	ff3913e3          	bne	s2,s3,2908 <sbrkbasic+0xc2>
    2926:	00003097          	auipc	ra,0x3
    292a:	234080e7          	jalr	564(ra) # 5b5a <fork>
    292e:	892a                	mv	s2,a0
    2930:	04054e63          	bltz	a0,298c <sbrkbasic+0x146>
    2934:	4505                	li	a0,1
    2936:	00003097          	auipc	ra,0x3
    293a:	2b4080e7          	jalr	692(ra) # 5bea <sbrk>
    293e:	4505                	li	a0,1
    2940:	00003097          	auipc	ra,0x3
    2944:	2aa080e7          	jalr	682(ra) # 5bea <sbrk>
    2948:	0489                	addi	s1,s1,2
    294a:	04a48f63          	beq	s1,a0,29a8 <sbrkbasic+0x162>
    294e:	85d2                	mv	a1,s4
    2950:	00004517          	auipc	a0,0x4
    2954:	5f050513          	addi	a0,a0,1520 # 6f40 <malloc+0xf80>
    2958:	00003097          	auipc	ra,0x3
    295c:	5aa080e7          	jalr	1450(ra) # 5f02 <printf>
    2960:	4505                	li	a0,1
    2962:	00003097          	auipc	ra,0x3
    2966:	200080e7          	jalr	512(ra) # 5b62 <exit>
    296a:	872a                	mv	a4,a0
    296c:	86a6                	mv	a3,s1
    296e:	864a                	mv	a2,s2
    2970:	85d2                	mv	a1,s4
    2972:	00004517          	auipc	a0,0x4
    2976:	58e50513          	addi	a0,a0,1422 # 6f00 <malloc+0xf40>
    297a:	00003097          	auipc	ra,0x3
    297e:	588080e7          	jalr	1416(ra) # 5f02 <printf>
    2982:	4505                	li	a0,1
    2984:	00003097          	auipc	ra,0x3
    2988:	1de080e7          	jalr	478(ra) # 5b62 <exit>
    298c:	85d2                	mv	a1,s4
    298e:	00004517          	auipc	a0,0x4
    2992:	59250513          	addi	a0,a0,1426 # 6f20 <malloc+0xf60>
    2996:	00003097          	auipc	ra,0x3
    299a:	56c080e7          	jalr	1388(ra) # 5f02 <printf>
    299e:	4505                	li	a0,1
    29a0:	00003097          	auipc	ra,0x3
    29a4:	1c2080e7          	jalr	450(ra) # 5b62 <exit>
    29a8:	00091763          	bnez	s2,29b6 <sbrkbasic+0x170>
    29ac:	4501                	li	a0,0
    29ae:	00003097          	auipc	ra,0x3
    29b2:	1b4080e7          	jalr	436(ra) # 5b62 <exit>
    29b6:	fbc40513          	addi	a0,s0,-68
    29ba:	00003097          	auipc	ra,0x3
    29be:	1b0080e7          	jalr	432(ra) # 5b6a <wait>
    29c2:	fbc42503          	lw	a0,-68(s0)
    29c6:	00003097          	auipc	ra,0x3
    29ca:	19c080e7          	jalr	412(ra) # 5b62 <exit>

00000000000029ce <sbrkmuch>:
    29ce:	7179                	addi	sp,sp,-48
    29d0:	f406                	sd	ra,40(sp)
    29d2:	f022                	sd	s0,32(sp)
    29d4:	ec26                	sd	s1,24(sp)
    29d6:	e84a                	sd	s2,16(sp)
    29d8:	e44e                	sd	s3,8(sp)
    29da:	e052                	sd	s4,0(sp)
    29dc:	1800                	addi	s0,sp,48
    29de:	89aa                	mv	s3,a0
    29e0:	4501                	li	a0,0
    29e2:	00003097          	auipc	ra,0x3
    29e6:	208080e7          	jalr	520(ra) # 5bea <sbrk>
    29ea:	892a                	mv	s2,a0
    29ec:	4501                	li	a0,0
    29ee:	00003097          	auipc	ra,0x3
    29f2:	1fc080e7          	jalr	508(ra) # 5bea <sbrk>
    29f6:	84aa                	mv	s1,a0
    29f8:	06400537          	lui	a0,0x6400
    29fc:	9d05                	subw	a0,a0,s1
    29fe:	00003097          	auipc	ra,0x3
    2a02:	1ec080e7          	jalr	492(ra) # 5bea <sbrk>
    2a06:	0ca49863          	bne	s1,a0,2ad6 <sbrkmuch+0x108>
    2a0a:	4501                	li	a0,0
    2a0c:	00003097          	auipc	ra,0x3
    2a10:	1de080e7          	jalr	478(ra) # 5bea <sbrk>
    2a14:	87aa                	mv	a5,a0
    2a16:	00a4f963          	bgeu	s1,a0,2a28 <sbrkmuch+0x5a>
    2a1a:	4685                	li	a3,1
    2a1c:	6705                	lui	a4,0x1
    2a1e:	00d48023          	sb	a3,0(s1)
    2a22:	94ba                	add	s1,s1,a4
    2a24:	fef4ede3          	bltu	s1,a5,2a1e <sbrkmuch+0x50>
    2a28:	064007b7          	lui	a5,0x6400
    2a2c:	06300713          	li	a4,99
    2a30:	fee78fa3          	sb	a4,-1(a5) # 63fffff <base+0x63f0397>
    2a34:	4501                	li	a0,0
    2a36:	00003097          	auipc	ra,0x3
    2a3a:	1b4080e7          	jalr	436(ra) # 5bea <sbrk>
    2a3e:	84aa                	mv	s1,a0
    2a40:	757d                	lui	a0,0xfffff
    2a42:	00003097          	auipc	ra,0x3
    2a46:	1a8080e7          	jalr	424(ra) # 5bea <sbrk>
    2a4a:	57fd                	li	a5,-1
    2a4c:	0af50363          	beq	a0,a5,2af2 <sbrkmuch+0x124>
    2a50:	4501                	li	a0,0
    2a52:	00003097          	auipc	ra,0x3
    2a56:	198080e7          	jalr	408(ra) # 5bea <sbrk>
    2a5a:	77fd                	lui	a5,0xfffff
    2a5c:	97a6                	add	a5,a5,s1
    2a5e:	0af51863          	bne	a0,a5,2b0e <sbrkmuch+0x140>
    2a62:	4501                	li	a0,0
    2a64:	00003097          	auipc	ra,0x3
    2a68:	186080e7          	jalr	390(ra) # 5bea <sbrk>
    2a6c:	84aa                	mv	s1,a0
    2a6e:	6505                	lui	a0,0x1
    2a70:	00003097          	auipc	ra,0x3
    2a74:	17a080e7          	jalr	378(ra) # 5bea <sbrk>
    2a78:	8a2a                	mv	s4,a0
    2a7a:	0aa49a63          	bne	s1,a0,2b2e <sbrkmuch+0x160>
    2a7e:	4501                	li	a0,0
    2a80:	00003097          	auipc	ra,0x3
    2a84:	16a080e7          	jalr	362(ra) # 5bea <sbrk>
    2a88:	6785                	lui	a5,0x1
    2a8a:	97a6                	add	a5,a5,s1
    2a8c:	0af51163          	bne	a0,a5,2b2e <sbrkmuch+0x160>
    2a90:	064007b7          	lui	a5,0x6400
    2a94:	fff7c703          	lbu	a4,-1(a5) # 63fffff <base+0x63f0397>
    2a98:	06300793          	li	a5,99
    2a9c:	0af70963          	beq	a4,a5,2b4e <sbrkmuch+0x180>
    2aa0:	4501                	li	a0,0
    2aa2:	00003097          	auipc	ra,0x3
    2aa6:	148080e7          	jalr	328(ra) # 5bea <sbrk>
    2aaa:	84aa                	mv	s1,a0
    2aac:	4501                	li	a0,0
    2aae:	00003097          	auipc	ra,0x3
    2ab2:	13c080e7          	jalr	316(ra) # 5bea <sbrk>
    2ab6:	40a9053b          	subw	a0,s2,a0
    2aba:	00003097          	auipc	ra,0x3
    2abe:	130080e7          	jalr	304(ra) # 5bea <sbrk>
    2ac2:	0aa49463          	bne	s1,a0,2b6a <sbrkmuch+0x19c>
    2ac6:	70a2                	ld	ra,40(sp)
    2ac8:	7402                	ld	s0,32(sp)
    2aca:	64e2                	ld	s1,24(sp)
    2acc:	6942                	ld	s2,16(sp)
    2ace:	69a2                	ld	s3,8(sp)
    2ad0:	6a02                	ld	s4,0(sp)
    2ad2:	6145                	addi	sp,sp,48
    2ad4:	8082                	ret
    2ad6:	85ce                	mv	a1,s3
    2ad8:	00004517          	auipc	a0,0x4
    2adc:	48850513          	addi	a0,a0,1160 # 6f60 <malloc+0xfa0>
    2ae0:	00003097          	auipc	ra,0x3
    2ae4:	422080e7          	jalr	1058(ra) # 5f02 <printf>
    2ae8:	4505                	li	a0,1
    2aea:	00003097          	auipc	ra,0x3
    2aee:	078080e7          	jalr	120(ra) # 5b62 <exit>
    2af2:	85ce                	mv	a1,s3
    2af4:	00004517          	auipc	a0,0x4
    2af8:	4b450513          	addi	a0,a0,1204 # 6fa8 <malloc+0xfe8>
    2afc:	00003097          	auipc	ra,0x3
    2b00:	406080e7          	jalr	1030(ra) # 5f02 <printf>
    2b04:	4505                	li	a0,1
    2b06:	00003097          	auipc	ra,0x3
    2b0a:	05c080e7          	jalr	92(ra) # 5b62 <exit>
    2b0e:	86aa                	mv	a3,a0
    2b10:	8626                	mv	a2,s1
    2b12:	85ce                	mv	a1,s3
    2b14:	00004517          	auipc	a0,0x4
    2b18:	4b450513          	addi	a0,a0,1204 # 6fc8 <malloc+0x1008>
    2b1c:	00003097          	auipc	ra,0x3
    2b20:	3e6080e7          	jalr	998(ra) # 5f02 <printf>
    2b24:	4505                	li	a0,1
    2b26:	00003097          	auipc	ra,0x3
    2b2a:	03c080e7          	jalr	60(ra) # 5b62 <exit>
    2b2e:	86d2                	mv	a3,s4
    2b30:	8626                	mv	a2,s1
    2b32:	85ce                	mv	a1,s3
    2b34:	00004517          	auipc	a0,0x4
    2b38:	4d450513          	addi	a0,a0,1236 # 7008 <malloc+0x1048>
    2b3c:	00003097          	auipc	ra,0x3
    2b40:	3c6080e7          	jalr	966(ra) # 5f02 <printf>
    2b44:	4505                	li	a0,1
    2b46:	00003097          	auipc	ra,0x3
    2b4a:	01c080e7          	jalr	28(ra) # 5b62 <exit>
    2b4e:	85ce                	mv	a1,s3
    2b50:	00004517          	auipc	a0,0x4
    2b54:	4e850513          	addi	a0,a0,1256 # 7038 <malloc+0x1078>
    2b58:	00003097          	auipc	ra,0x3
    2b5c:	3aa080e7          	jalr	938(ra) # 5f02 <printf>
    2b60:	4505                	li	a0,1
    2b62:	00003097          	auipc	ra,0x3
    2b66:	000080e7          	jalr	ra # 5b62 <exit>
    2b6a:	86aa                	mv	a3,a0
    2b6c:	8626                	mv	a2,s1
    2b6e:	85ce                	mv	a1,s3
    2b70:	00004517          	auipc	a0,0x4
    2b74:	50050513          	addi	a0,a0,1280 # 7070 <malloc+0x10b0>
    2b78:	00003097          	auipc	ra,0x3
    2b7c:	38a080e7          	jalr	906(ra) # 5f02 <printf>
    2b80:	4505                	li	a0,1
    2b82:	00003097          	auipc	ra,0x3
    2b86:	fe0080e7          	jalr	-32(ra) # 5b62 <exit>

0000000000002b8a <sbrkarg>:
    2b8a:	7179                	addi	sp,sp,-48
    2b8c:	f406                	sd	ra,40(sp)
    2b8e:	f022                	sd	s0,32(sp)
    2b90:	ec26                	sd	s1,24(sp)
    2b92:	e84a                	sd	s2,16(sp)
    2b94:	e44e                	sd	s3,8(sp)
    2b96:	1800                	addi	s0,sp,48
    2b98:	89aa                	mv	s3,a0
    2b9a:	6505                	lui	a0,0x1
    2b9c:	00003097          	auipc	ra,0x3
    2ba0:	04e080e7          	jalr	78(ra) # 5bea <sbrk>
    2ba4:	892a                	mv	s2,a0
    2ba6:	20100593          	li	a1,513
    2baa:	00004517          	auipc	a0,0x4
    2bae:	4ee50513          	addi	a0,a0,1262 # 7098 <malloc+0x10d8>
    2bb2:	00003097          	auipc	ra,0x3
    2bb6:	ff0080e7          	jalr	-16(ra) # 5ba2 <open>
    2bba:	84aa                	mv	s1,a0
    2bbc:	00004517          	auipc	a0,0x4
    2bc0:	4dc50513          	addi	a0,a0,1244 # 7098 <malloc+0x10d8>
    2bc4:	00003097          	auipc	ra,0x3
    2bc8:	fee080e7          	jalr	-18(ra) # 5bb2 <unlink>
    2bcc:	0404c163          	bltz	s1,2c0e <sbrkarg+0x84>
    2bd0:	6605                	lui	a2,0x1
    2bd2:	85ca                	mv	a1,s2
    2bd4:	8526                	mv	a0,s1
    2bd6:	00003097          	auipc	ra,0x3
    2bda:	fac080e7          	jalr	-84(ra) # 5b82 <write>
    2bde:	04054663          	bltz	a0,2c2a <sbrkarg+0xa0>
    2be2:	8526                	mv	a0,s1
    2be4:	00003097          	auipc	ra,0x3
    2be8:	fa6080e7          	jalr	-90(ra) # 5b8a <close>
    2bec:	6505                	lui	a0,0x1
    2bee:	00003097          	auipc	ra,0x3
    2bf2:	ffc080e7          	jalr	-4(ra) # 5bea <sbrk>
    2bf6:	00003097          	auipc	ra,0x3
    2bfa:	f7c080e7          	jalr	-132(ra) # 5b72 <pipe>
    2bfe:	e521                	bnez	a0,2c46 <sbrkarg+0xbc>
    2c00:	70a2                	ld	ra,40(sp)
    2c02:	7402                	ld	s0,32(sp)
    2c04:	64e2                	ld	s1,24(sp)
    2c06:	6942                	ld	s2,16(sp)
    2c08:	69a2                	ld	s3,8(sp)
    2c0a:	6145                	addi	sp,sp,48
    2c0c:	8082                	ret
    2c0e:	85ce                	mv	a1,s3
    2c10:	00004517          	auipc	a0,0x4
    2c14:	49050513          	addi	a0,a0,1168 # 70a0 <malloc+0x10e0>
    2c18:	00003097          	auipc	ra,0x3
    2c1c:	2ea080e7          	jalr	746(ra) # 5f02 <printf>
    2c20:	4505                	li	a0,1
    2c22:	00003097          	auipc	ra,0x3
    2c26:	f40080e7          	jalr	-192(ra) # 5b62 <exit>
    2c2a:	85ce                	mv	a1,s3
    2c2c:	00004517          	auipc	a0,0x4
    2c30:	48c50513          	addi	a0,a0,1164 # 70b8 <malloc+0x10f8>
    2c34:	00003097          	auipc	ra,0x3
    2c38:	2ce080e7          	jalr	718(ra) # 5f02 <printf>
    2c3c:	4505                	li	a0,1
    2c3e:	00003097          	auipc	ra,0x3
    2c42:	f24080e7          	jalr	-220(ra) # 5b62 <exit>
    2c46:	85ce                	mv	a1,s3
    2c48:	00004517          	auipc	a0,0x4
    2c4c:	e5050513          	addi	a0,a0,-432 # 6a98 <malloc+0xad8>
    2c50:	00003097          	auipc	ra,0x3
    2c54:	2b2080e7          	jalr	690(ra) # 5f02 <printf>
    2c58:	4505                	li	a0,1
    2c5a:	00003097          	auipc	ra,0x3
    2c5e:	f08080e7          	jalr	-248(ra) # 5b62 <exit>

0000000000002c62 <argptest>:
    2c62:	1101                	addi	sp,sp,-32
    2c64:	ec06                	sd	ra,24(sp)
    2c66:	e822                	sd	s0,16(sp)
    2c68:	e426                	sd	s1,8(sp)
    2c6a:	e04a                	sd	s2,0(sp)
    2c6c:	1000                	addi	s0,sp,32
    2c6e:	892a                	mv	s2,a0
    2c70:	4581                	li	a1,0
    2c72:	00004517          	auipc	a0,0x4
    2c76:	45e50513          	addi	a0,a0,1118 # 70d0 <malloc+0x1110>
    2c7a:	00003097          	auipc	ra,0x3
    2c7e:	f28080e7          	jalr	-216(ra) # 5ba2 <open>
    2c82:	02054b63          	bltz	a0,2cb8 <argptest+0x56>
    2c86:	84aa                	mv	s1,a0
    2c88:	4501                	li	a0,0
    2c8a:	00003097          	auipc	ra,0x3
    2c8e:	f60080e7          	jalr	-160(ra) # 5bea <sbrk>
    2c92:	567d                	li	a2,-1
    2c94:	fff50593          	addi	a1,a0,-1
    2c98:	8526                	mv	a0,s1
    2c9a:	00003097          	auipc	ra,0x3
    2c9e:	ee0080e7          	jalr	-288(ra) # 5b7a <read>
    2ca2:	8526                	mv	a0,s1
    2ca4:	00003097          	auipc	ra,0x3
    2ca8:	ee6080e7          	jalr	-282(ra) # 5b8a <close>
    2cac:	60e2                	ld	ra,24(sp)
    2cae:	6442                	ld	s0,16(sp)
    2cb0:	64a2                	ld	s1,8(sp)
    2cb2:	6902                	ld	s2,0(sp)
    2cb4:	6105                	addi	sp,sp,32
    2cb6:	8082                	ret
    2cb8:	85ca                	mv	a1,s2
    2cba:	00004517          	auipc	a0,0x4
    2cbe:	cee50513          	addi	a0,a0,-786 # 69a8 <malloc+0x9e8>
    2cc2:	00003097          	auipc	ra,0x3
    2cc6:	240080e7          	jalr	576(ra) # 5f02 <printf>
    2cca:	4505                	li	a0,1
    2ccc:	00003097          	auipc	ra,0x3
    2cd0:	e96080e7          	jalr	-362(ra) # 5b62 <exit>

0000000000002cd4 <sbrkbugs>:
    2cd4:	1141                	addi	sp,sp,-16
    2cd6:	e406                	sd	ra,8(sp)
    2cd8:	e022                	sd	s0,0(sp)
    2cda:	0800                	addi	s0,sp,16
    2cdc:	00003097          	auipc	ra,0x3
    2ce0:	e7e080e7          	jalr	-386(ra) # 5b5a <fork>
    2ce4:	02054263          	bltz	a0,2d08 <sbrkbugs+0x34>
    2ce8:	ed0d                	bnez	a0,2d22 <sbrkbugs+0x4e>
    2cea:	00003097          	auipc	ra,0x3
    2cee:	f00080e7          	jalr	-256(ra) # 5bea <sbrk>
    2cf2:	40a0053b          	negw	a0,a0
    2cf6:	00003097          	auipc	ra,0x3
    2cfa:	ef4080e7          	jalr	-268(ra) # 5bea <sbrk>
    2cfe:	4501                	li	a0,0
    2d00:	00003097          	auipc	ra,0x3
    2d04:	e62080e7          	jalr	-414(ra) # 5b62 <exit>
    2d08:	00004517          	auipc	a0,0x4
    2d0c:	09050513          	addi	a0,a0,144 # 6d98 <malloc+0xdd8>
    2d10:	00003097          	auipc	ra,0x3
    2d14:	1f2080e7          	jalr	498(ra) # 5f02 <printf>
    2d18:	4505                	li	a0,1
    2d1a:	00003097          	auipc	ra,0x3
    2d1e:	e48080e7          	jalr	-440(ra) # 5b62 <exit>
    2d22:	4501                	li	a0,0
    2d24:	00003097          	auipc	ra,0x3
    2d28:	e46080e7          	jalr	-442(ra) # 5b6a <wait>
    2d2c:	00003097          	auipc	ra,0x3
    2d30:	e2e080e7          	jalr	-466(ra) # 5b5a <fork>
    2d34:	02054563          	bltz	a0,2d5e <sbrkbugs+0x8a>
    2d38:	e121                	bnez	a0,2d78 <sbrkbugs+0xa4>
    2d3a:	00003097          	auipc	ra,0x3
    2d3e:	eb0080e7          	jalr	-336(ra) # 5bea <sbrk>
    2d42:	6785                	lui	a5,0x1
    2d44:	dac7879b          	addiw	a5,a5,-596
    2d48:	40a7853b          	subw	a0,a5,a0
    2d4c:	00003097          	auipc	ra,0x3
    2d50:	e9e080e7          	jalr	-354(ra) # 5bea <sbrk>
    2d54:	4501                	li	a0,0
    2d56:	00003097          	auipc	ra,0x3
    2d5a:	e0c080e7          	jalr	-500(ra) # 5b62 <exit>
    2d5e:	00004517          	auipc	a0,0x4
    2d62:	03a50513          	addi	a0,a0,58 # 6d98 <malloc+0xdd8>
    2d66:	00003097          	auipc	ra,0x3
    2d6a:	19c080e7          	jalr	412(ra) # 5f02 <printf>
    2d6e:	4505                	li	a0,1
    2d70:	00003097          	auipc	ra,0x3
    2d74:	df2080e7          	jalr	-526(ra) # 5b62 <exit>
    2d78:	4501                	li	a0,0
    2d7a:	00003097          	auipc	ra,0x3
    2d7e:	df0080e7          	jalr	-528(ra) # 5b6a <wait>
    2d82:	00003097          	auipc	ra,0x3
    2d86:	dd8080e7          	jalr	-552(ra) # 5b5a <fork>
    2d8a:	02054a63          	bltz	a0,2dbe <sbrkbugs+0xea>
    2d8e:	e529                	bnez	a0,2dd8 <sbrkbugs+0x104>
    2d90:	00003097          	auipc	ra,0x3
    2d94:	e5a080e7          	jalr	-422(ra) # 5bea <sbrk>
    2d98:	67ad                	lui	a5,0xb
    2d9a:	8007879b          	addiw	a5,a5,-2048
    2d9e:	40a7853b          	subw	a0,a5,a0
    2da2:	00003097          	auipc	ra,0x3
    2da6:	e48080e7          	jalr	-440(ra) # 5bea <sbrk>
    2daa:	5559                	li	a0,-10
    2dac:	00003097          	auipc	ra,0x3
    2db0:	e3e080e7          	jalr	-450(ra) # 5bea <sbrk>
    2db4:	4501                	li	a0,0
    2db6:	00003097          	auipc	ra,0x3
    2dba:	dac080e7          	jalr	-596(ra) # 5b62 <exit>
    2dbe:	00004517          	auipc	a0,0x4
    2dc2:	fda50513          	addi	a0,a0,-38 # 6d98 <malloc+0xdd8>
    2dc6:	00003097          	auipc	ra,0x3
    2dca:	13c080e7          	jalr	316(ra) # 5f02 <printf>
    2dce:	4505                	li	a0,1
    2dd0:	00003097          	auipc	ra,0x3
    2dd4:	d92080e7          	jalr	-622(ra) # 5b62 <exit>
    2dd8:	4501                	li	a0,0
    2dda:	00003097          	auipc	ra,0x3
    2dde:	d90080e7          	jalr	-624(ra) # 5b6a <wait>
    2de2:	4501                	li	a0,0
    2de4:	00003097          	auipc	ra,0x3
    2de8:	d7e080e7          	jalr	-642(ra) # 5b62 <exit>

0000000000002dec <sbrklast>:
    2dec:	7179                	addi	sp,sp,-48
    2dee:	f406                	sd	ra,40(sp)
    2df0:	f022                	sd	s0,32(sp)
    2df2:	ec26                	sd	s1,24(sp)
    2df4:	e84a                	sd	s2,16(sp)
    2df6:	e44e                	sd	s3,8(sp)
    2df8:	1800                	addi	s0,sp,48
    2dfa:	4501                	li	a0,0
    2dfc:	00003097          	auipc	ra,0x3
    2e00:	dee080e7          	jalr	-530(ra) # 5bea <sbrk>
    2e04:	03451793          	slli	a5,a0,0x34
    2e08:	efc1                	bnez	a5,2ea0 <sbrklast+0xb4>
    2e0a:	6505                	lui	a0,0x1
    2e0c:	00003097          	auipc	ra,0x3
    2e10:	dde080e7          	jalr	-546(ra) # 5bea <sbrk>
    2e14:	4529                	li	a0,10
    2e16:	00003097          	auipc	ra,0x3
    2e1a:	dd4080e7          	jalr	-556(ra) # 5bea <sbrk>
    2e1e:	5531                	li	a0,-20
    2e20:	00003097          	auipc	ra,0x3
    2e24:	dca080e7          	jalr	-566(ra) # 5bea <sbrk>
    2e28:	4501                	li	a0,0
    2e2a:	00003097          	auipc	ra,0x3
    2e2e:	dc0080e7          	jalr	-576(ra) # 5bea <sbrk>
    2e32:	84aa                	mv	s1,a0
    2e34:	fc050913          	addi	s2,a0,-64 # fc0 <linktest+0xca>
    2e38:	07800793          	li	a5,120
    2e3c:	fcf50023          	sb	a5,-64(a0)
    2e40:	fc0500a3          	sb	zero,-63(a0)
    2e44:	20200593          	li	a1,514
    2e48:	854a                	mv	a0,s2
    2e4a:	00003097          	auipc	ra,0x3
    2e4e:	d58080e7          	jalr	-680(ra) # 5ba2 <open>
    2e52:	89aa                	mv	s3,a0
    2e54:	4605                	li	a2,1
    2e56:	85ca                	mv	a1,s2
    2e58:	00003097          	auipc	ra,0x3
    2e5c:	d2a080e7          	jalr	-726(ra) # 5b82 <write>
    2e60:	854e                	mv	a0,s3
    2e62:	00003097          	auipc	ra,0x3
    2e66:	d28080e7          	jalr	-728(ra) # 5b8a <close>
    2e6a:	4589                	li	a1,2
    2e6c:	854a                	mv	a0,s2
    2e6e:	00003097          	auipc	ra,0x3
    2e72:	d34080e7          	jalr	-716(ra) # 5ba2 <open>
    2e76:	fc048023          	sb	zero,-64(s1)
    2e7a:	4605                	li	a2,1
    2e7c:	85ca                	mv	a1,s2
    2e7e:	00003097          	auipc	ra,0x3
    2e82:	cfc080e7          	jalr	-772(ra) # 5b7a <read>
    2e86:	fc04c703          	lbu	a4,-64(s1)
    2e8a:	07800793          	li	a5,120
    2e8e:	02f71363          	bne	a4,a5,2eb4 <sbrklast+0xc8>
    2e92:	70a2                	ld	ra,40(sp)
    2e94:	7402                	ld	s0,32(sp)
    2e96:	64e2                	ld	s1,24(sp)
    2e98:	6942                	ld	s2,16(sp)
    2e9a:	69a2                	ld	s3,8(sp)
    2e9c:	6145                	addi	sp,sp,48
    2e9e:	8082                	ret
    2ea0:	0347d513          	srli	a0,a5,0x34
    2ea4:	6785                	lui	a5,0x1
    2ea6:	40a7853b          	subw	a0,a5,a0
    2eaa:	00003097          	auipc	ra,0x3
    2eae:	d40080e7          	jalr	-704(ra) # 5bea <sbrk>
    2eb2:	bfa1                	j	2e0a <sbrklast+0x1e>
    2eb4:	4505                	li	a0,1
    2eb6:	00003097          	auipc	ra,0x3
    2eba:	cac080e7          	jalr	-852(ra) # 5b62 <exit>

0000000000002ebe <sbrk8000>:
    2ebe:	1141                	addi	sp,sp,-16
    2ec0:	e406                	sd	ra,8(sp)
    2ec2:	e022                	sd	s0,0(sp)
    2ec4:	0800                	addi	s0,sp,16
    2ec6:	80000537          	lui	a0,0x80000
    2eca:	0511                	addi	a0,a0,4
    2ecc:	00003097          	auipc	ra,0x3
    2ed0:	d1e080e7          	jalr	-738(ra) # 5bea <sbrk>
    2ed4:	4501                	li	a0,0
    2ed6:	00003097          	auipc	ra,0x3
    2eda:	d14080e7          	jalr	-748(ra) # 5bea <sbrk>
    2ede:	fff54783          	lbu	a5,-1(a0) # ffffffff7fffffff <base+0xffffffff7fff0397>
    2ee2:	0785                	addi	a5,a5,1
    2ee4:	0ff7f793          	andi	a5,a5,255
    2ee8:	fef50fa3          	sb	a5,-1(a0)
    2eec:	60a2                	ld	ra,8(sp)
    2eee:	6402                	ld	s0,0(sp)
    2ef0:	0141                	addi	sp,sp,16
    2ef2:	8082                	ret

0000000000002ef4 <execout>:
    2ef4:	715d                	addi	sp,sp,-80
    2ef6:	e486                	sd	ra,72(sp)
    2ef8:	e0a2                	sd	s0,64(sp)
    2efa:	fc26                	sd	s1,56(sp)
    2efc:	f84a                	sd	s2,48(sp)
    2efe:	f44e                	sd	s3,40(sp)
    2f00:	f052                	sd	s4,32(sp)
    2f02:	0880                	addi	s0,sp,80
    2f04:	4901                	li	s2,0
    2f06:	49bd                	li	s3,15
    2f08:	00003097          	auipc	ra,0x3
    2f0c:	c52080e7          	jalr	-942(ra) # 5b5a <fork>
    2f10:	84aa                	mv	s1,a0
    2f12:	02054063          	bltz	a0,2f32 <execout+0x3e>
    2f16:	c91d                	beqz	a0,2f4c <execout+0x58>
    2f18:	4501                	li	a0,0
    2f1a:	00003097          	auipc	ra,0x3
    2f1e:	c50080e7          	jalr	-944(ra) # 5b6a <wait>
    2f22:	2905                	addiw	s2,s2,1
    2f24:	ff3912e3          	bne	s2,s3,2f08 <execout+0x14>
    2f28:	4501                	li	a0,0
    2f2a:	00003097          	auipc	ra,0x3
    2f2e:	c38080e7          	jalr	-968(ra) # 5b62 <exit>
    2f32:	00004517          	auipc	a0,0x4
    2f36:	e6650513          	addi	a0,a0,-410 # 6d98 <malloc+0xdd8>
    2f3a:	00003097          	auipc	ra,0x3
    2f3e:	fc8080e7          	jalr	-56(ra) # 5f02 <printf>
    2f42:	4505                	li	a0,1
    2f44:	00003097          	auipc	ra,0x3
    2f48:	c1e080e7          	jalr	-994(ra) # 5b62 <exit>
    2f4c:	59fd                	li	s3,-1
    2f4e:	4a05                	li	s4,1
    2f50:	6505                	lui	a0,0x1
    2f52:	00003097          	auipc	ra,0x3
    2f56:	c98080e7          	jalr	-872(ra) # 5bea <sbrk>
    2f5a:	01350763          	beq	a0,s3,2f68 <execout+0x74>
    2f5e:	6785                	lui	a5,0x1
    2f60:	953e                	add	a0,a0,a5
    2f62:	ff450fa3          	sb	s4,-1(a0) # fff <linktest+0x109>
    2f66:	b7ed                	j	2f50 <execout+0x5c>
    2f68:	01205a63          	blez	s2,2f7c <execout+0x88>
    2f6c:	757d                	lui	a0,0xfffff
    2f6e:	00003097          	auipc	ra,0x3
    2f72:	c7c080e7          	jalr	-900(ra) # 5bea <sbrk>
    2f76:	2485                	addiw	s1,s1,1
    2f78:	ff249ae3          	bne	s1,s2,2f6c <execout+0x78>
    2f7c:	4505                	li	a0,1
    2f7e:	00003097          	auipc	ra,0x3
    2f82:	c0c080e7          	jalr	-1012(ra) # 5b8a <close>
    2f86:	00003517          	auipc	a0,0x3
    2f8a:	18250513          	addi	a0,a0,386 # 6108 <malloc+0x148>
    2f8e:	faa43c23          	sd	a0,-72(s0)
    2f92:	00003797          	auipc	a5,0x3
    2f96:	1e678793          	addi	a5,a5,486 # 6178 <malloc+0x1b8>
    2f9a:	fcf43023          	sd	a5,-64(s0)
    2f9e:	fc043423          	sd	zero,-56(s0)
    2fa2:	fb840593          	addi	a1,s0,-72
    2fa6:	00003097          	auipc	ra,0x3
    2faa:	bf4080e7          	jalr	-1036(ra) # 5b9a <exec>
    2fae:	4501                	li	a0,0
    2fb0:	00003097          	auipc	ra,0x3
    2fb4:	bb2080e7          	jalr	-1102(ra) # 5b62 <exit>

0000000000002fb8 <fourteen>:
    2fb8:	1101                	addi	sp,sp,-32
    2fba:	ec06                	sd	ra,24(sp)
    2fbc:	e822                	sd	s0,16(sp)
    2fbe:	e426                	sd	s1,8(sp)
    2fc0:	1000                	addi	s0,sp,32
    2fc2:	84aa                	mv	s1,a0
    2fc4:	00004517          	auipc	a0,0x4
    2fc8:	2e450513          	addi	a0,a0,740 # 72a8 <malloc+0x12e8>
    2fcc:	00003097          	auipc	ra,0x3
    2fd0:	bfe080e7          	jalr	-1026(ra) # 5bca <mkdir>
    2fd4:	e165                	bnez	a0,30b4 <fourteen+0xfc>
    2fd6:	00004517          	auipc	a0,0x4
    2fda:	12a50513          	addi	a0,a0,298 # 7100 <malloc+0x1140>
    2fde:	00003097          	auipc	ra,0x3
    2fe2:	bec080e7          	jalr	-1044(ra) # 5bca <mkdir>
    2fe6:	e56d                	bnez	a0,30d0 <fourteen+0x118>
    2fe8:	20000593          	li	a1,512
    2fec:	00004517          	auipc	a0,0x4
    2ff0:	16c50513          	addi	a0,a0,364 # 7158 <malloc+0x1198>
    2ff4:	00003097          	auipc	ra,0x3
    2ff8:	bae080e7          	jalr	-1106(ra) # 5ba2 <open>
    2ffc:	0e054863          	bltz	a0,30ec <fourteen+0x134>
    3000:	00003097          	auipc	ra,0x3
    3004:	b8a080e7          	jalr	-1142(ra) # 5b8a <close>
    3008:	4581                	li	a1,0
    300a:	00004517          	auipc	a0,0x4
    300e:	1c650513          	addi	a0,a0,454 # 71d0 <malloc+0x1210>
    3012:	00003097          	auipc	ra,0x3
    3016:	b90080e7          	jalr	-1136(ra) # 5ba2 <open>
    301a:	0e054763          	bltz	a0,3108 <fourteen+0x150>
    301e:	00003097          	auipc	ra,0x3
    3022:	b6c080e7          	jalr	-1172(ra) # 5b8a <close>
    3026:	00004517          	auipc	a0,0x4
    302a:	21a50513          	addi	a0,a0,538 # 7240 <malloc+0x1280>
    302e:	00003097          	auipc	ra,0x3
    3032:	b9c080e7          	jalr	-1124(ra) # 5bca <mkdir>
    3036:	c57d                	beqz	a0,3124 <fourteen+0x16c>
    3038:	00004517          	auipc	a0,0x4
    303c:	26050513          	addi	a0,a0,608 # 7298 <malloc+0x12d8>
    3040:	00003097          	auipc	ra,0x3
    3044:	b8a080e7          	jalr	-1142(ra) # 5bca <mkdir>
    3048:	cd65                	beqz	a0,3140 <fourteen+0x188>
    304a:	00004517          	auipc	a0,0x4
    304e:	24e50513          	addi	a0,a0,590 # 7298 <malloc+0x12d8>
    3052:	00003097          	auipc	ra,0x3
    3056:	b60080e7          	jalr	-1184(ra) # 5bb2 <unlink>
    305a:	00004517          	auipc	a0,0x4
    305e:	1e650513          	addi	a0,a0,486 # 7240 <malloc+0x1280>
    3062:	00003097          	auipc	ra,0x3
    3066:	b50080e7          	jalr	-1200(ra) # 5bb2 <unlink>
    306a:	00004517          	auipc	a0,0x4
    306e:	16650513          	addi	a0,a0,358 # 71d0 <malloc+0x1210>
    3072:	00003097          	auipc	ra,0x3
    3076:	b40080e7          	jalr	-1216(ra) # 5bb2 <unlink>
    307a:	00004517          	auipc	a0,0x4
    307e:	0de50513          	addi	a0,a0,222 # 7158 <malloc+0x1198>
    3082:	00003097          	auipc	ra,0x3
    3086:	b30080e7          	jalr	-1232(ra) # 5bb2 <unlink>
    308a:	00004517          	auipc	a0,0x4
    308e:	07650513          	addi	a0,a0,118 # 7100 <malloc+0x1140>
    3092:	00003097          	auipc	ra,0x3
    3096:	b20080e7          	jalr	-1248(ra) # 5bb2 <unlink>
    309a:	00004517          	auipc	a0,0x4
    309e:	20e50513          	addi	a0,a0,526 # 72a8 <malloc+0x12e8>
    30a2:	00003097          	auipc	ra,0x3
    30a6:	b10080e7          	jalr	-1264(ra) # 5bb2 <unlink>
    30aa:	60e2                	ld	ra,24(sp)
    30ac:	6442                	ld	s0,16(sp)
    30ae:	64a2                	ld	s1,8(sp)
    30b0:	6105                	addi	sp,sp,32
    30b2:	8082                	ret
    30b4:	85a6                	mv	a1,s1
    30b6:	00004517          	auipc	a0,0x4
    30ba:	02250513          	addi	a0,a0,34 # 70d8 <malloc+0x1118>
    30be:	00003097          	auipc	ra,0x3
    30c2:	e44080e7          	jalr	-444(ra) # 5f02 <printf>
    30c6:	4505                	li	a0,1
    30c8:	00003097          	auipc	ra,0x3
    30cc:	a9a080e7          	jalr	-1382(ra) # 5b62 <exit>
    30d0:	85a6                	mv	a1,s1
    30d2:	00004517          	auipc	a0,0x4
    30d6:	04e50513          	addi	a0,a0,78 # 7120 <malloc+0x1160>
    30da:	00003097          	auipc	ra,0x3
    30de:	e28080e7          	jalr	-472(ra) # 5f02 <printf>
    30e2:	4505                	li	a0,1
    30e4:	00003097          	auipc	ra,0x3
    30e8:	a7e080e7          	jalr	-1410(ra) # 5b62 <exit>
    30ec:	85a6                	mv	a1,s1
    30ee:	00004517          	auipc	a0,0x4
    30f2:	09a50513          	addi	a0,a0,154 # 7188 <malloc+0x11c8>
    30f6:	00003097          	auipc	ra,0x3
    30fa:	e0c080e7          	jalr	-500(ra) # 5f02 <printf>
    30fe:	4505                	li	a0,1
    3100:	00003097          	auipc	ra,0x3
    3104:	a62080e7          	jalr	-1438(ra) # 5b62 <exit>
    3108:	85a6                	mv	a1,s1
    310a:	00004517          	auipc	a0,0x4
    310e:	0f650513          	addi	a0,a0,246 # 7200 <malloc+0x1240>
    3112:	00003097          	auipc	ra,0x3
    3116:	df0080e7          	jalr	-528(ra) # 5f02 <printf>
    311a:	4505                	li	a0,1
    311c:	00003097          	auipc	ra,0x3
    3120:	a46080e7          	jalr	-1466(ra) # 5b62 <exit>
    3124:	85a6                	mv	a1,s1
    3126:	00004517          	auipc	a0,0x4
    312a:	13a50513          	addi	a0,a0,314 # 7260 <malloc+0x12a0>
    312e:	00003097          	auipc	ra,0x3
    3132:	dd4080e7          	jalr	-556(ra) # 5f02 <printf>
    3136:	4505                	li	a0,1
    3138:	00003097          	auipc	ra,0x3
    313c:	a2a080e7          	jalr	-1494(ra) # 5b62 <exit>
    3140:	85a6                	mv	a1,s1
    3142:	00004517          	auipc	a0,0x4
    3146:	17650513          	addi	a0,a0,374 # 72b8 <malloc+0x12f8>
    314a:	00003097          	auipc	ra,0x3
    314e:	db8080e7          	jalr	-584(ra) # 5f02 <printf>
    3152:	4505                	li	a0,1
    3154:	00003097          	auipc	ra,0x3
    3158:	a0e080e7          	jalr	-1522(ra) # 5b62 <exit>

000000000000315c <diskfull>:
    315c:	b9010113          	addi	sp,sp,-1136
    3160:	46113423          	sd	ra,1128(sp)
    3164:	46813023          	sd	s0,1120(sp)
    3168:	44913c23          	sd	s1,1112(sp)
    316c:	45213823          	sd	s2,1104(sp)
    3170:	45313423          	sd	s3,1096(sp)
    3174:	45413023          	sd	s4,1088(sp)
    3178:	43513c23          	sd	s5,1080(sp)
    317c:	43613823          	sd	s6,1072(sp)
    3180:	43713423          	sd	s7,1064(sp)
    3184:	43813023          	sd	s8,1056(sp)
    3188:	47010413          	addi	s0,sp,1136
    318c:	8c2a                	mv	s8,a0
    318e:	00004517          	auipc	a0,0x4
    3192:	16250513          	addi	a0,a0,354 # 72f0 <malloc+0x1330>
    3196:	00003097          	auipc	ra,0x3
    319a:	a1c080e7          	jalr	-1508(ra) # 5bb2 <unlink>
    319e:	4a01                	li	s4,0
    31a0:	06200b13          	li	s6,98
    31a4:	06900a93          	li	s5,105
    31a8:	06700993          	li	s3,103
    31ac:	10c00b93          	li	s7,268
    31b0:	aabd                	j	332e <diskfull+0x1d2>
    31b2:	b9040613          	addi	a2,s0,-1136
    31b6:	85e2                	mv	a1,s8
    31b8:	00004517          	auipc	a0,0x4
    31bc:	14850513          	addi	a0,a0,328 # 7300 <malloc+0x1340>
    31c0:	00003097          	auipc	ra,0x3
    31c4:	d42080e7          	jalr	-702(ra) # 5f02 <printf>
    31c8:	a821                	j	31e0 <diskfull+0x84>
    31ca:	854a                	mv	a0,s2
    31cc:	00003097          	auipc	ra,0x3
    31d0:	9be080e7          	jalr	-1602(ra) # 5b8a <close>
    31d4:	854a                	mv	a0,s2
    31d6:	00003097          	auipc	ra,0x3
    31da:	9b4080e7          	jalr	-1612(ra) # 5b8a <close>
    31de:	2a05                	addiw	s4,s4,1
    31e0:	4481                	li	s1,0
    31e2:	07a00913          	li	s2,122
    31e6:	08000993          	li	s3,128
    31ea:	bb240823          	sb	s2,-1104(s0)
    31ee:	bb2408a3          	sb	s2,-1103(s0)
    31f2:	41f4d79b          	sraiw	a5,s1,0x1f
    31f6:	01b7d71b          	srliw	a4,a5,0x1b
    31fa:	009707bb          	addw	a5,a4,s1
    31fe:	4057d69b          	sraiw	a3,a5,0x5
    3202:	0306869b          	addiw	a3,a3,48
    3206:	bad40923          	sb	a3,-1102(s0)
    320a:	8bfd                	andi	a5,a5,31
    320c:	9f99                	subw	a5,a5,a4
    320e:	0307879b          	addiw	a5,a5,48
    3212:	baf409a3          	sb	a5,-1101(s0)
    3216:	ba040a23          	sb	zero,-1100(s0)
    321a:	bb040513          	addi	a0,s0,-1104
    321e:	00003097          	auipc	ra,0x3
    3222:	994080e7          	jalr	-1644(ra) # 5bb2 <unlink>
    3226:	60200593          	li	a1,1538
    322a:	bb040513          	addi	a0,s0,-1104
    322e:	00003097          	auipc	ra,0x3
    3232:	974080e7          	jalr	-1676(ra) # 5ba2 <open>
    3236:	00054963          	bltz	a0,3248 <diskfull+0xec>
    323a:	00003097          	auipc	ra,0x3
    323e:	950080e7          	jalr	-1712(ra) # 5b8a <close>
    3242:	2485                	addiw	s1,s1,1
    3244:	fb3493e3          	bne	s1,s3,31ea <diskfull+0x8e>
    3248:	00004517          	auipc	a0,0x4
    324c:	0a850513          	addi	a0,a0,168 # 72f0 <malloc+0x1330>
    3250:	00003097          	auipc	ra,0x3
    3254:	97a080e7          	jalr	-1670(ra) # 5bca <mkdir>
    3258:	12050963          	beqz	a0,338a <diskfull+0x22e>
    325c:	00004517          	auipc	a0,0x4
    3260:	09450513          	addi	a0,a0,148 # 72f0 <malloc+0x1330>
    3264:	00003097          	auipc	ra,0x3
    3268:	94e080e7          	jalr	-1714(ra) # 5bb2 <unlink>
    326c:	4481                	li	s1,0
    326e:	07a00913          	li	s2,122
    3272:	08000993          	li	s3,128
    3276:	bb240823          	sb	s2,-1104(s0)
    327a:	bb2408a3          	sb	s2,-1103(s0)
    327e:	41f4d79b          	sraiw	a5,s1,0x1f
    3282:	01b7d71b          	srliw	a4,a5,0x1b
    3286:	009707bb          	addw	a5,a4,s1
    328a:	4057d69b          	sraiw	a3,a5,0x5
    328e:	0306869b          	addiw	a3,a3,48
    3292:	bad40923          	sb	a3,-1102(s0)
    3296:	8bfd                	andi	a5,a5,31
    3298:	9f99                	subw	a5,a5,a4
    329a:	0307879b          	addiw	a5,a5,48
    329e:	baf409a3          	sb	a5,-1101(s0)
    32a2:	ba040a23          	sb	zero,-1100(s0)
    32a6:	bb040513          	addi	a0,s0,-1104
    32aa:	00003097          	auipc	ra,0x3
    32ae:	908080e7          	jalr	-1784(ra) # 5bb2 <unlink>
    32b2:	2485                	addiw	s1,s1,1
    32b4:	fd3491e3          	bne	s1,s3,3276 <diskfull+0x11a>
    32b8:	03405e63          	blez	s4,32f4 <diskfull+0x198>
    32bc:	4481                	li	s1,0
    32be:	06200a93          	li	s5,98
    32c2:	06900993          	li	s3,105
    32c6:	06700913          	li	s2,103
    32ca:	bb540823          	sb	s5,-1104(s0)
    32ce:	bb3408a3          	sb	s3,-1103(s0)
    32d2:	bb240923          	sb	s2,-1102(s0)
    32d6:	0304879b          	addiw	a5,s1,48
    32da:	baf409a3          	sb	a5,-1101(s0)
    32de:	ba040a23          	sb	zero,-1100(s0)
    32e2:	bb040513          	addi	a0,s0,-1104
    32e6:	00003097          	auipc	ra,0x3
    32ea:	8cc080e7          	jalr	-1844(ra) # 5bb2 <unlink>
    32ee:	2485                	addiw	s1,s1,1
    32f0:	fd449de3          	bne	s1,s4,32ca <diskfull+0x16e>
    32f4:	46813083          	ld	ra,1128(sp)
    32f8:	46013403          	ld	s0,1120(sp)
    32fc:	45813483          	ld	s1,1112(sp)
    3300:	45013903          	ld	s2,1104(sp)
    3304:	44813983          	ld	s3,1096(sp)
    3308:	44013a03          	ld	s4,1088(sp)
    330c:	43813a83          	ld	s5,1080(sp)
    3310:	43013b03          	ld	s6,1072(sp)
    3314:	42813b83          	ld	s7,1064(sp)
    3318:	42013c03          	ld	s8,1056(sp)
    331c:	47010113          	addi	sp,sp,1136
    3320:	8082                	ret
    3322:	854a                	mv	a0,s2
    3324:	00003097          	auipc	ra,0x3
    3328:	866080e7          	jalr	-1946(ra) # 5b8a <close>
    332c:	2a05                	addiw	s4,s4,1
    332e:	b9640823          	sb	s6,-1136(s0)
    3332:	b95408a3          	sb	s5,-1135(s0)
    3336:	b9340923          	sb	s3,-1134(s0)
    333a:	030a079b          	addiw	a5,s4,48
    333e:	b8f409a3          	sb	a5,-1133(s0)
    3342:	b8040a23          	sb	zero,-1132(s0)
    3346:	b9040513          	addi	a0,s0,-1136
    334a:	00003097          	auipc	ra,0x3
    334e:	868080e7          	jalr	-1944(ra) # 5bb2 <unlink>
    3352:	60200593          	li	a1,1538
    3356:	b9040513          	addi	a0,s0,-1136
    335a:	00003097          	auipc	ra,0x3
    335e:	848080e7          	jalr	-1976(ra) # 5ba2 <open>
    3362:	892a                	mv	s2,a0
    3364:	e40547e3          	bltz	a0,31b2 <diskfull+0x56>
    3368:	84de                	mv	s1,s7
    336a:	40000613          	li	a2,1024
    336e:	bb040593          	addi	a1,s0,-1104
    3372:	854a                	mv	a0,s2
    3374:	00003097          	auipc	ra,0x3
    3378:	80e080e7          	jalr	-2034(ra) # 5b82 <write>
    337c:	40000793          	li	a5,1024
    3380:	e4f515e3          	bne	a0,a5,31ca <diskfull+0x6e>
    3384:	34fd                	addiw	s1,s1,-1
    3386:	f0f5                	bnez	s1,336a <diskfull+0x20e>
    3388:	bf69                	j	3322 <diskfull+0x1c6>
    338a:	00004517          	auipc	a0,0x4
    338e:	f9650513          	addi	a0,a0,-106 # 7320 <malloc+0x1360>
    3392:	00003097          	auipc	ra,0x3
    3396:	b70080e7          	jalr	-1168(ra) # 5f02 <printf>
    339a:	b5c9                	j	325c <diskfull+0x100>

000000000000339c <iputtest>:
    339c:	1101                	addi	sp,sp,-32
    339e:	ec06                	sd	ra,24(sp)
    33a0:	e822                	sd	s0,16(sp)
    33a2:	e426                	sd	s1,8(sp)
    33a4:	1000                	addi	s0,sp,32
    33a6:	84aa                	mv	s1,a0
    33a8:	00004517          	auipc	a0,0x4
    33ac:	fa850513          	addi	a0,a0,-88 # 7350 <malloc+0x1390>
    33b0:	00003097          	auipc	ra,0x3
    33b4:	81a080e7          	jalr	-2022(ra) # 5bca <mkdir>
    33b8:	04054563          	bltz	a0,3402 <iputtest+0x66>
    33bc:	00004517          	auipc	a0,0x4
    33c0:	f9450513          	addi	a0,a0,-108 # 7350 <malloc+0x1390>
    33c4:	00003097          	auipc	ra,0x3
    33c8:	80e080e7          	jalr	-2034(ra) # 5bd2 <chdir>
    33cc:	04054963          	bltz	a0,341e <iputtest+0x82>
    33d0:	00004517          	auipc	a0,0x4
    33d4:	fc050513          	addi	a0,a0,-64 # 7390 <malloc+0x13d0>
    33d8:	00002097          	auipc	ra,0x2
    33dc:	7da080e7          	jalr	2010(ra) # 5bb2 <unlink>
    33e0:	04054d63          	bltz	a0,343a <iputtest+0x9e>
    33e4:	00004517          	auipc	a0,0x4
    33e8:	fdc50513          	addi	a0,a0,-36 # 73c0 <malloc+0x1400>
    33ec:	00002097          	auipc	ra,0x2
    33f0:	7e6080e7          	jalr	2022(ra) # 5bd2 <chdir>
    33f4:	06054163          	bltz	a0,3456 <iputtest+0xba>
    33f8:	60e2                	ld	ra,24(sp)
    33fa:	6442                	ld	s0,16(sp)
    33fc:	64a2                	ld	s1,8(sp)
    33fe:	6105                	addi	sp,sp,32
    3400:	8082                	ret
    3402:	85a6                	mv	a1,s1
    3404:	00004517          	auipc	a0,0x4
    3408:	f5450513          	addi	a0,a0,-172 # 7358 <malloc+0x1398>
    340c:	00003097          	auipc	ra,0x3
    3410:	af6080e7          	jalr	-1290(ra) # 5f02 <printf>
    3414:	4505                	li	a0,1
    3416:	00002097          	auipc	ra,0x2
    341a:	74c080e7          	jalr	1868(ra) # 5b62 <exit>
    341e:	85a6                	mv	a1,s1
    3420:	00004517          	auipc	a0,0x4
    3424:	f5050513          	addi	a0,a0,-176 # 7370 <malloc+0x13b0>
    3428:	00003097          	auipc	ra,0x3
    342c:	ada080e7          	jalr	-1318(ra) # 5f02 <printf>
    3430:	4505                	li	a0,1
    3432:	00002097          	auipc	ra,0x2
    3436:	730080e7          	jalr	1840(ra) # 5b62 <exit>
    343a:	85a6                	mv	a1,s1
    343c:	00004517          	auipc	a0,0x4
    3440:	f6450513          	addi	a0,a0,-156 # 73a0 <malloc+0x13e0>
    3444:	00003097          	auipc	ra,0x3
    3448:	abe080e7          	jalr	-1346(ra) # 5f02 <printf>
    344c:	4505                	li	a0,1
    344e:	00002097          	auipc	ra,0x2
    3452:	714080e7          	jalr	1812(ra) # 5b62 <exit>
    3456:	85a6                	mv	a1,s1
    3458:	00004517          	auipc	a0,0x4
    345c:	f7050513          	addi	a0,a0,-144 # 73c8 <malloc+0x1408>
    3460:	00003097          	auipc	ra,0x3
    3464:	aa2080e7          	jalr	-1374(ra) # 5f02 <printf>
    3468:	4505                	li	a0,1
    346a:	00002097          	auipc	ra,0x2
    346e:	6f8080e7          	jalr	1784(ra) # 5b62 <exit>

0000000000003472 <exitiputtest>:
    3472:	7179                	addi	sp,sp,-48
    3474:	f406                	sd	ra,40(sp)
    3476:	f022                	sd	s0,32(sp)
    3478:	ec26                	sd	s1,24(sp)
    347a:	1800                	addi	s0,sp,48
    347c:	84aa                	mv	s1,a0
    347e:	00002097          	auipc	ra,0x2
    3482:	6dc080e7          	jalr	1756(ra) # 5b5a <fork>
    3486:	04054663          	bltz	a0,34d2 <exitiputtest+0x60>
    348a:	ed45                	bnez	a0,3542 <exitiputtest+0xd0>
    348c:	00004517          	auipc	a0,0x4
    3490:	ec450513          	addi	a0,a0,-316 # 7350 <malloc+0x1390>
    3494:	00002097          	auipc	ra,0x2
    3498:	736080e7          	jalr	1846(ra) # 5bca <mkdir>
    349c:	04054963          	bltz	a0,34ee <exitiputtest+0x7c>
    34a0:	00004517          	auipc	a0,0x4
    34a4:	eb050513          	addi	a0,a0,-336 # 7350 <malloc+0x1390>
    34a8:	00002097          	auipc	ra,0x2
    34ac:	72a080e7          	jalr	1834(ra) # 5bd2 <chdir>
    34b0:	04054d63          	bltz	a0,350a <exitiputtest+0x98>
    34b4:	00004517          	auipc	a0,0x4
    34b8:	edc50513          	addi	a0,a0,-292 # 7390 <malloc+0x13d0>
    34bc:	00002097          	auipc	ra,0x2
    34c0:	6f6080e7          	jalr	1782(ra) # 5bb2 <unlink>
    34c4:	06054163          	bltz	a0,3526 <exitiputtest+0xb4>
    34c8:	4501                	li	a0,0
    34ca:	00002097          	auipc	ra,0x2
    34ce:	698080e7          	jalr	1688(ra) # 5b62 <exit>
    34d2:	85a6                	mv	a1,s1
    34d4:	00003517          	auipc	a0,0x3
    34d8:	4bc50513          	addi	a0,a0,1212 # 6990 <malloc+0x9d0>
    34dc:	00003097          	auipc	ra,0x3
    34e0:	a26080e7          	jalr	-1498(ra) # 5f02 <printf>
    34e4:	4505                	li	a0,1
    34e6:	00002097          	auipc	ra,0x2
    34ea:	67c080e7          	jalr	1660(ra) # 5b62 <exit>
    34ee:	85a6                	mv	a1,s1
    34f0:	00004517          	auipc	a0,0x4
    34f4:	e6850513          	addi	a0,a0,-408 # 7358 <malloc+0x1398>
    34f8:	00003097          	auipc	ra,0x3
    34fc:	a0a080e7          	jalr	-1526(ra) # 5f02 <printf>
    3500:	4505                	li	a0,1
    3502:	00002097          	auipc	ra,0x2
    3506:	660080e7          	jalr	1632(ra) # 5b62 <exit>
    350a:	85a6                	mv	a1,s1
    350c:	00004517          	auipc	a0,0x4
    3510:	ed450513          	addi	a0,a0,-300 # 73e0 <malloc+0x1420>
    3514:	00003097          	auipc	ra,0x3
    3518:	9ee080e7          	jalr	-1554(ra) # 5f02 <printf>
    351c:	4505                	li	a0,1
    351e:	00002097          	auipc	ra,0x2
    3522:	644080e7          	jalr	1604(ra) # 5b62 <exit>
    3526:	85a6                	mv	a1,s1
    3528:	00004517          	auipc	a0,0x4
    352c:	e7850513          	addi	a0,a0,-392 # 73a0 <malloc+0x13e0>
    3530:	00003097          	auipc	ra,0x3
    3534:	9d2080e7          	jalr	-1582(ra) # 5f02 <printf>
    3538:	4505                	li	a0,1
    353a:	00002097          	auipc	ra,0x2
    353e:	628080e7          	jalr	1576(ra) # 5b62 <exit>
    3542:	fdc40513          	addi	a0,s0,-36
    3546:	00002097          	auipc	ra,0x2
    354a:	624080e7          	jalr	1572(ra) # 5b6a <wait>
    354e:	fdc42503          	lw	a0,-36(s0)
    3552:	00002097          	auipc	ra,0x2
    3556:	610080e7          	jalr	1552(ra) # 5b62 <exit>

000000000000355a <dirtest>:
    355a:	1101                	addi	sp,sp,-32
    355c:	ec06                	sd	ra,24(sp)
    355e:	e822                	sd	s0,16(sp)
    3560:	e426                	sd	s1,8(sp)
    3562:	1000                	addi	s0,sp,32
    3564:	84aa                	mv	s1,a0
    3566:	00004517          	auipc	a0,0x4
    356a:	e9250513          	addi	a0,a0,-366 # 73f8 <malloc+0x1438>
    356e:	00002097          	auipc	ra,0x2
    3572:	65c080e7          	jalr	1628(ra) # 5bca <mkdir>
    3576:	04054563          	bltz	a0,35c0 <dirtest+0x66>
    357a:	00004517          	auipc	a0,0x4
    357e:	e7e50513          	addi	a0,a0,-386 # 73f8 <malloc+0x1438>
    3582:	00002097          	auipc	ra,0x2
    3586:	650080e7          	jalr	1616(ra) # 5bd2 <chdir>
    358a:	04054963          	bltz	a0,35dc <dirtest+0x82>
    358e:	00004517          	auipc	a0,0x4
    3592:	e8a50513          	addi	a0,a0,-374 # 7418 <malloc+0x1458>
    3596:	00002097          	auipc	ra,0x2
    359a:	63c080e7          	jalr	1596(ra) # 5bd2 <chdir>
    359e:	04054d63          	bltz	a0,35f8 <dirtest+0x9e>
    35a2:	00004517          	auipc	a0,0x4
    35a6:	e5650513          	addi	a0,a0,-426 # 73f8 <malloc+0x1438>
    35aa:	00002097          	auipc	ra,0x2
    35ae:	608080e7          	jalr	1544(ra) # 5bb2 <unlink>
    35b2:	06054163          	bltz	a0,3614 <dirtest+0xba>
    35b6:	60e2                	ld	ra,24(sp)
    35b8:	6442                	ld	s0,16(sp)
    35ba:	64a2                	ld	s1,8(sp)
    35bc:	6105                	addi	sp,sp,32
    35be:	8082                	ret
    35c0:	85a6                	mv	a1,s1
    35c2:	00004517          	auipc	a0,0x4
    35c6:	d9650513          	addi	a0,a0,-618 # 7358 <malloc+0x1398>
    35ca:	00003097          	auipc	ra,0x3
    35ce:	938080e7          	jalr	-1736(ra) # 5f02 <printf>
    35d2:	4505                	li	a0,1
    35d4:	00002097          	auipc	ra,0x2
    35d8:	58e080e7          	jalr	1422(ra) # 5b62 <exit>
    35dc:	85a6                	mv	a1,s1
    35de:	00004517          	auipc	a0,0x4
    35e2:	e2250513          	addi	a0,a0,-478 # 7400 <malloc+0x1440>
    35e6:	00003097          	auipc	ra,0x3
    35ea:	91c080e7          	jalr	-1764(ra) # 5f02 <printf>
    35ee:	4505                	li	a0,1
    35f0:	00002097          	auipc	ra,0x2
    35f4:	572080e7          	jalr	1394(ra) # 5b62 <exit>
    35f8:	85a6                	mv	a1,s1
    35fa:	00004517          	auipc	a0,0x4
    35fe:	e2650513          	addi	a0,a0,-474 # 7420 <malloc+0x1460>
    3602:	00003097          	auipc	ra,0x3
    3606:	900080e7          	jalr	-1792(ra) # 5f02 <printf>
    360a:	4505                	li	a0,1
    360c:	00002097          	auipc	ra,0x2
    3610:	556080e7          	jalr	1366(ra) # 5b62 <exit>
    3614:	85a6                	mv	a1,s1
    3616:	00004517          	auipc	a0,0x4
    361a:	e2250513          	addi	a0,a0,-478 # 7438 <malloc+0x1478>
    361e:	00003097          	auipc	ra,0x3
    3622:	8e4080e7          	jalr	-1820(ra) # 5f02 <printf>
    3626:	4505                	li	a0,1
    3628:	00002097          	auipc	ra,0x2
    362c:	53a080e7          	jalr	1338(ra) # 5b62 <exit>

0000000000003630 <subdir>:
    3630:	1101                	addi	sp,sp,-32
    3632:	ec06                	sd	ra,24(sp)
    3634:	e822                	sd	s0,16(sp)
    3636:	e426                	sd	s1,8(sp)
    3638:	e04a                	sd	s2,0(sp)
    363a:	1000                	addi	s0,sp,32
    363c:	892a                	mv	s2,a0
    363e:	00004517          	auipc	a0,0x4
    3642:	f4250513          	addi	a0,a0,-190 # 7580 <malloc+0x15c0>
    3646:	00002097          	auipc	ra,0x2
    364a:	56c080e7          	jalr	1388(ra) # 5bb2 <unlink>
    364e:	00004517          	auipc	a0,0x4
    3652:	e0250513          	addi	a0,a0,-510 # 7450 <malloc+0x1490>
    3656:	00002097          	auipc	ra,0x2
    365a:	574080e7          	jalr	1396(ra) # 5bca <mkdir>
    365e:	38051663          	bnez	a0,39ea <subdir+0x3ba>
    3662:	20200593          	li	a1,514
    3666:	00004517          	auipc	a0,0x4
    366a:	e0a50513          	addi	a0,a0,-502 # 7470 <malloc+0x14b0>
    366e:	00002097          	auipc	ra,0x2
    3672:	534080e7          	jalr	1332(ra) # 5ba2 <open>
    3676:	84aa                	mv	s1,a0
    3678:	38054763          	bltz	a0,3a06 <subdir+0x3d6>
    367c:	4609                	li	a2,2
    367e:	00004597          	auipc	a1,0x4
    3682:	f0258593          	addi	a1,a1,-254 # 7580 <malloc+0x15c0>
    3686:	00002097          	auipc	ra,0x2
    368a:	4fc080e7          	jalr	1276(ra) # 5b82 <write>
    368e:	8526                	mv	a0,s1
    3690:	00002097          	auipc	ra,0x2
    3694:	4fa080e7          	jalr	1274(ra) # 5b8a <close>
    3698:	00004517          	auipc	a0,0x4
    369c:	db850513          	addi	a0,a0,-584 # 7450 <malloc+0x1490>
    36a0:	00002097          	auipc	ra,0x2
    36a4:	512080e7          	jalr	1298(ra) # 5bb2 <unlink>
    36a8:	36055d63          	bgez	a0,3a22 <subdir+0x3f2>
    36ac:	00004517          	auipc	a0,0x4
    36b0:	e1c50513          	addi	a0,a0,-484 # 74c8 <malloc+0x1508>
    36b4:	00002097          	auipc	ra,0x2
    36b8:	516080e7          	jalr	1302(ra) # 5bca <mkdir>
    36bc:	38051163          	bnez	a0,3a3e <subdir+0x40e>
    36c0:	20200593          	li	a1,514
    36c4:	00004517          	auipc	a0,0x4
    36c8:	e2c50513          	addi	a0,a0,-468 # 74f0 <malloc+0x1530>
    36cc:	00002097          	auipc	ra,0x2
    36d0:	4d6080e7          	jalr	1238(ra) # 5ba2 <open>
    36d4:	84aa                	mv	s1,a0
    36d6:	38054263          	bltz	a0,3a5a <subdir+0x42a>
    36da:	4609                	li	a2,2
    36dc:	00004597          	auipc	a1,0x4
    36e0:	e4458593          	addi	a1,a1,-444 # 7520 <malloc+0x1560>
    36e4:	00002097          	auipc	ra,0x2
    36e8:	49e080e7          	jalr	1182(ra) # 5b82 <write>
    36ec:	8526                	mv	a0,s1
    36ee:	00002097          	auipc	ra,0x2
    36f2:	49c080e7          	jalr	1180(ra) # 5b8a <close>
    36f6:	4581                	li	a1,0
    36f8:	00004517          	auipc	a0,0x4
    36fc:	e3050513          	addi	a0,a0,-464 # 7528 <malloc+0x1568>
    3700:	00002097          	auipc	ra,0x2
    3704:	4a2080e7          	jalr	1186(ra) # 5ba2 <open>
    3708:	84aa                	mv	s1,a0
    370a:	36054663          	bltz	a0,3a76 <subdir+0x446>
    370e:	660d                	lui	a2,0x3
    3710:	00009597          	auipc	a1,0x9
    3714:	55858593          	addi	a1,a1,1368 # cc68 <buf>
    3718:	00002097          	auipc	ra,0x2
    371c:	462080e7          	jalr	1122(ra) # 5b7a <read>
    3720:	4789                	li	a5,2
    3722:	36f51863          	bne	a0,a5,3a92 <subdir+0x462>
    3726:	00009717          	auipc	a4,0x9
    372a:	54274703          	lbu	a4,1346(a4) # cc68 <buf>
    372e:	06600793          	li	a5,102
    3732:	36f71063          	bne	a4,a5,3a92 <subdir+0x462>
    3736:	8526                	mv	a0,s1
    3738:	00002097          	auipc	ra,0x2
    373c:	452080e7          	jalr	1106(ra) # 5b8a <close>
    3740:	00004597          	auipc	a1,0x4
    3744:	e3858593          	addi	a1,a1,-456 # 7578 <malloc+0x15b8>
    3748:	00004517          	auipc	a0,0x4
    374c:	da850513          	addi	a0,a0,-600 # 74f0 <malloc+0x1530>
    3750:	00002097          	auipc	ra,0x2
    3754:	472080e7          	jalr	1138(ra) # 5bc2 <link>
    3758:	34051b63          	bnez	a0,3aae <subdir+0x47e>
    375c:	00004517          	auipc	a0,0x4
    3760:	d9450513          	addi	a0,a0,-620 # 74f0 <malloc+0x1530>
    3764:	00002097          	auipc	ra,0x2
    3768:	44e080e7          	jalr	1102(ra) # 5bb2 <unlink>
    376c:	34051f63          	bnez	a0,3aca <subdir+0x49a>
    3770:	4581                	li	a1,0
    3772:	00004517          	auipc	a0,0x4
    3776:	d7e50513          	addi	a0,a0,-642 # 74f0 <malloc+0x1530>
    377a:	00002097          	auipc	ra,0x2
    377e:	428080e7          	jalr	1064(ra) # 5ba2 <open>
    3782:	36055263          	bgez	a0,3ae6 <subdir+0x4b6>
    3786:	00004517          	auipc	a0,0x4
    378a:	cca50513          	addi	a0,a0,-822 # 7450 <malloc+0x1490>
    378e:	00002097          	auipc	ra,0x2
    3792:	444080e7          	jalr	1092(ra) # 5bd2 <chdir>
    3796:	36051663          	bnez	a0,3b02 <subdir+0x4d2>
    379a:	00004517          	auipc	a0,0x4
    379e:	e7650513          	addi	a0,a0,-394 # 7610 <malloc+0x1650>
    37a2:	00002097          	auipc	ra,0x2
    37a6:	430080e7          	jalr	1072(ra) # 5bd2 <chdir>
    37aa:	36051a63          	bnez	a0,3b1e <subdir+0x4ee>
    37ae:	00004517          	auipc	a0,0x4
    37b2:	e9250513          	addi	a0,a0,-366 # 7640 <malloc+0x1680>
    37b6:	00002097          	auipc	ra,0x2
    37ba:	41c080e7          	jalr	1052(ra) # 5bd2 <chdir>
    37be:	36051e63          	bnez	a0,3b3a <subdir+0x50a>
    37c2:	00004517          	auipc	a0,0x4
    37c6:	eae50513          	addi	a0,a0,-338 # 7670 <malloc+0x16b0>
    37ca:	00002097          	auipc	ra,0x2
    37ce:	408080e7          	jalr	1032(ra) # 5bd2 <chdir>
    37d2:	38051263          	bnez	a0,3b56 <subdir+0x526>
    37d6:	4581                	li	a1,0
    37d8:	00004517          	auipc	a0,0x4
    37dc:	da050513          	addi	a0,a0,-608 # 7578 <malloc+0x15b8>
    37e0:	00002097          	auipc	ra,0x2
    37e4:	3c2080e7          	jalr	962(ra) # 5ba2 <open>
    37e8:	84aa                	mv	s1,a0
    37ea:	38054463          	bltz	a0,3b72 <subdir+0x542>
    37ee:	660d                	lui	a2,0x3
    37f0:	00009597          	auipc	a1,0x9
    37f4:	47858593          	addi	a1,a1,1144 # cc68 <buf>
    37f8:	00002097          	auipc	ra,0x2
    37fc:	382080e7          	jalr	898(ra) # 5b7a <read>
    3800:	4789                	li	a5,2
    3802:	38f51663          	bne	a0,a5,3b8e <subdir+0x55e>
    3806:	8526                	mv	a0,s1
    3808:	00002097          	auipc	ra,0x2
    380c:	382080e7          	jalr	898(ra) # 5b8a <close>
    3810:	4581                	li	a1,0
    3812:	00004517          	auipc	a0,0x4
    3816:	cde50513          	addi	a0,a0,-802 # 74f0 <malloc+0x1530>
    381a:	00002097          	auipc	ra,0x2
    381e:	388080e7          	jalr	904(ra) # 5ba2 <open>
    3822:	38055463          	bgez	a0,3baa <subdir+0x57a>
    3826:	20200593          	li	a1,514
    382a:	00004517          	auipc	a0,0x4
    382e:	ed650513          	addi	a0,a0,-298 # 7700 <malloc+0x1740>
    3832:	00002097          	auipc	ra,0x2
    3836:	370080e7          	jalr	880(ra) # 5ba2 <open>
    383a:	38055663          	bgez	a0,3bc6 <subdir+0x596>
    383e:	20200593          	li	a1,514
    3842:	00004517          	auipc	a0,0x4
    3846:	eee50513          	addi	a0,a0,-274 # 7730 <malloc+0x1770>
    384a:	00002097          	auipc	ra,0x2
    384e:	358080e7          	jalr	856(ra) # 5ba2 <open>
    3852:	38055863          	bgez	a0,3be2 <subdir+0x5b2>
    3856:	20000593          	li	a1,512
    385a:	00004517          	auipc	a0,0x4
    385e:	bf650513          	addi	a0,a0,-1034 # 7450 <malloc+0x1490>
    3862:	00002097          	auipc	ra,0x2
    3866:	340080e7          	jalr	832(ra) # 5ba2 <open>
    386a:	38055a63          	bgez	a0,3bfe <subdir+0x5ce>
    386e:	4589                	li	a1,2
    3870:	00004517          	auipc	a0,0x4
    3874:	be050513          	addi	a0,a0,-1056 # 7450 <malloc+0x1490>
    3878:	00002097          	auipc	ra,0x2
    387c:	32a080e7          	jalr	810(ra) # 5ba2 <open>
    3880:	38055d63          	bgez	a0,3c1a <subdir+0x5ea>
    3884:	4585                	li	a1,1
    3886:	00004517          	auipc	a0,0x4
    388a:	bca50513          	addi	a0,a0,-1078 # 7450 <malloc+0x1490>
    388e:	00002097          	auipc	ra,0x2
    3892:	314080e7          	jalr	788(ra) # 5ba2 <open>
    3896:	3a055063          	bgez	a0,3c36 <subdir+0x606>
    389a:	00004597          	auipc	a1,0x4
    389e:	f2658593          	addi	a1,a1,-218 # 77c0 <malloc+0x1800>
    38a2:	00004517          	auipc	a0,0x4
    38a6:	e5e50513          	addi	a0,a0,-418 # 7700 <malloc+0x1740>
    38aa:	00002097          	auipc	ra,0x2
    38ae:	318080e7          	jalr	792(ra) # 5bc2 <link>
    38b2:	3a050063          	beqz	a0,3c52 <subdir+0x622>
    38b6:	00004597          	auipc	a1,0x4
    38ba:	f0a58593          	addi	a1,a1,-246 # 77c0 <malloc+0x1800>
    38be:	00004517          	auipc	a0,0x4
    38c2:	e7250513          	addi	a0,a0,-398 # 7730 <malloc+0x1770>
    38c6:	00002097          	auipc	ra,0x2
    38ca:	2fc080e7          	jalr	764(ra) # 5bc2 <link>
    38ce:	3a050063          	beqz	a0,3c6e <subdir+0x63e>
    38d2:	00004597          	auipc	a1,0x4
    38d6:	ca658593          	addi	a1,a1,-858 # 7578 <malloc+0x15b8>
    38da:	00004517          	auipc	a0,0x4
    38de:	b9650513          	addi	a0,a0,-1130 # 7470 <malloc+0x14b0>
    38e2:	00002097          	auipc	ra,0x2
    38e6:	2e0080e7          	jalr	736(ra) # 5bc2 <link>
    38ea:	3a050063          	beqz	a0,3c8a <subdir+0x65a>
    38ee:	00004517          	auipc	a0,0x4
    38f2:	e1250513          	addi	a0,a0,-494 # 7700 <malloc+0x1740>
    38f6:	00002097          	auipc	ra,0x2
    38fa:	2d4080e7          	jalr	724(ra) # 5bca <mkdir>
    38fe:	3a050463          	beqz	a0,3ca6 <subdir+0x676>
    3902:	00004517          	auipc	a0,0x4
    3906:	e2e50513          	addi	a0,a0,-466 # 7730 <malloc+0x1770>
    390a:	00002097          	auipc	ra,0x2
    390e:	2c0080e7          	jalr	704(ra) # 5bca <mkdir>
    3912:	3a050863          	beqz	a0,3cc2 <subdir+0x692>
    3916:	00004517          	auipc	a0,0x4
    391a:	c6250513          	addi	a0,a0,-926 # 7578 <malloc+0x15b8>
    391e:	00002097          	auipc	ra,0x2
    3922:	2ac080e7          	jalr	684(ra) # 5bca <mkdir>
    3926:	3a050c63          	beqz	a0,3cde <subdir+0x6ae>
    392a:	00004517          	auipc	a0,0x4
    392e:	e0650513          	addi	a0,a0,-506 # 7730 <malloc+0x1770>
    3932:	00002097          	auipc	ra,0x2
    3936:	280080e7          	jalr	640(ra) # 5bb2 <unlink>
    393a:	3c050063          	beqz	a0,3cfa <subdir+0x6ca>
    393e:	00004517          	auipc	a0,0x4
    3942:	dc250513          	addi	a0,a0,-574 # 7700 <malloc+0x1740>
    3946:	00002097          	auipc	ra,0x2
    394a:	26c080e7          	jalr	620(ra) # 5bb2 <unlink>
    394e:	3c050463          	beqz	a0,3d16 <subdir+0x6e6>
    3952:	00004517          	auipc	a0,0x4
    3956:	b1e50513          	addi	a0,a0,-1250 # 7470 <malloc+0x14b0>
    395a:	00002097          	auipc	ra,0x2
    395e:	278080e7          	jalr	632(ra) # 5bd2 <chdir>
    3962:	3c050863          	beqz	a0,3d32 <subdir+0x702>
    3966:	00004517          	auipc	a0,0x4
    396a:	faa50513          	addi	a0,a0,-86 # 7910 <malloc+0x1950>
    396e:	00002097          	auipc	ra,0x2
    3972:	264080e7          	jalr	612(ra) # 5bd2 <chdir>
    3976:	3c050c63          	beqz	a0,3d4e <subdir+0x71e>
    397a:	00004517          	auipc	a0,0x4
    397e:	bfe50513          	addi	a0,a0,-1026 # 7578 <malloc+0x15b8>
    3982:	00002097          	auipc	ra,0x2
    3986:	230080e7          	jalr	560(ra) # 5bb2 <unlink>
    398a:	3e051063          	bnez	a0,3d6a <subdir+0x73a>
    398e:	00004517          	auipc	a0,0x4
    3992:	ae250513          	addi	a0,a0,-1310 # 7470 <malloc+0x14b0>
    3996:	00002097          	auipc	ra,0x2
    399a:	21c080e7          	jalr	540(ra) # 5bb2 <unlink>
    399e:	3e051463          	bnez	a0,3d86 <subdir+0x756>
    39a2:	00004517          	auipc	a0,0x4
    39a6:	aae50513          	addi	a0,a0,-1362 # 7450 <malloc+0x1490>
    39aa:	00002097          	auipc	ra,0x2
    39ae:	208080e7          	jalr	520(ra) # 5bb2 <unlink>
    39b2:	3e050863          	beqz	a0,3da2 <subdir+0x772>
    39b6:	00004517          	auipc	a0,0x4
    39ba:	fca50513          	addi	a0,a0,-54 # 7980 <malloc+0x19c0>
    39be:	00002097          	auipc	ra,0x2
    39c2:	1f4080e7          	jalr	500(ra) # 5bb2 <unlink>
    39c6:	3e054c63          	bltz	a0,3dbe <subdir+0x78e>
    39ca:	00004517          	auipc	a0,0x4
    39ce:	a8650513          	addi	a0,a0,-1402 # 7450 <malloc+0x1490>
    39d2:	00002097          	auipc	ra,0x2
    39d6:	1e0080e7          	jalr	480(ra) # 5bb2 <unlink>
    39da:	40054063          	bltz	a0,3dda <subdir+0x7aa>
    39de:	60e2                	ld	ra,24(sp)
    39e0:	6442                	ld	s0,16(sp)
    39e2:	64a2                	ld	s1,8(sp)
    39e4:	6902                	ld	s2,0(sp)
    39e6:	6105                	addi	sp,sp,32
    39e8:	8082                	ret
    39ea:	85ca                	mv	a1,s2
    39ec:	00004517          	auipc	a0,0x4
    39f0:	a6c50513          	addi	a0,a0,-1428 # 7458 <malloc+0x1498>
    39f4:	00002097          	auipc	ra,0x2
    39f8:	50e080e7          	jalr	1294(ra) # 5f02 <printf>
    39fc:	4505                	li	a0,1
    39fe:	00002097          	auipc	ra,0x2
    3a02:	164080e7          	jalr	356(ra) # 5b62 <exit>
    3a06:	85ca                	mv	a1,s2
    3a08:	00004517          	auipc	a0,0x4
    3a0c:	a7050513          	addi	a0,a0,-1424 # 7478 <malloc+0x14b8>
    3a10:	00002097          	auipc	ra,0x2
    3a14:	4f2080e7          	jalr	1266(ra) # 5f02 <printf>
    3a18:	4505                	li	a0,1
    3a1a:	00002097          	auipc	ra,0x2
    3a1e:	148080e7          	jalr	328(ra) # 5b62 <exit>
    3a22:	85ca                	mv	a1,s2
    3a24:	00004517          	auipc	a0,0x4
    3a28:	a7450513          	addi	a0,a0,-1420 # 7498 <malloc+0x14d8>
    3a2c:	00002097          	auipc	ra,0x2
    3a30:	4d6080e7          	jalr	1238(ra) # 5f02 <printf>
    3a34:	4505                	li	a0,1
    3a36:	00002097          	auipc	ra,0x2
    3a3a:	12c080e7          	jalr	300(ra) # 5b62 <exit>
    3a3e:	85ca                	mv	a1,s2
    3a40:	00004517          	auipc	a0,0x4
    3a44:	a9050513          	addi	a0,a0,-1392 # 74d0 <malloc+0x1510>
    3a48:	00002097          	auipc	ra,0x2
    3a4c:	4ba080e7          	jalr	1210(ra) # 5f02 <printf>
    3a50:	4505                	li	a0,1
    3a52:	00002097          	auipc	ra,0x2
    3a56:	110080e7          	jalr	272(ra) # 5b62 <exit>
    3a5a:	85ca                	mv	a1,s2
    3a5c:	00004517          	auipc	a0,0x4
    3a60:	aa450513          	addi	a0,a0,-1372 # 7500 <malloc+0x1540>
    3a64:	00002097          	auipc	ra,0x2
    3a68:	49e080e7          	jalr	1182(ra) # 5f02 <printf>
    3a6c:	4505                	li	a0,1
    3a6e:	00002097          	auipc	ra,0x2
    3a72:	0f4080e7          	jalr	244(ra) # 5b62 <exit>
    3a76:	85ca                	mv	a1,s2
    3a78:	00004517          	auipc	a0,0x4
    3a7c:	ac050513          	addi	a0,a0,-1344 # 7538 <malloc+0x1578>
    3a80:	00002097          	auipc	ra,0x2
    3a84:	482080e7          	jalr	1154(ra) # 5f02 <printf>
    3a88:	4505                	li	a0,1
    3a8a:	00002097          	auipc	ra,0x2
    3a8e:	0d8080e7          	jalr	216(ra) # 5b62 <exit>
    3a92:	85ca                	mv	a1,s2
    3a94:	00004517          	auipc	a0,0x4
    3a98:	ac450513          	addi	a0,a0,-1340 # 7558 <malloc+0x1598>
    3a9c:	00002097          	auipc	ra,0x2
    3aa0:	466080e7          	jalr	1126(ra) # 5f02 <printf>
    3aa4:	4505                	li	a0,1
    3aa6:	00002097          	auipc	ra,0x2
    3aaa:	0bc080e7          	jalr	188(ra) # 5b62 <exit>
    3aae:	85ca                	mv	a1,s2
    3ab0:	00004517          	auipc	a0,0x4
    3ab4:	ad850513          	addi	a0,a0,-1320 # 7588 <malloc+0x15c8>
    3ab8:	00002097          	auipc	ra,0x2
    3abc:	44a080e7          	jalr	1098(ra) # 5f02 <printf>
    3ac0:	4505                	li	a0,1
    3ac2:	00002097          	auipc	ra,0x2
    3ac6:	0a0080e7          	jalr	160(ra) # 5b62 <exit>
    3aca:	85ca                	mv	a1,s2
    3acc:	00004517          	auipc	a0,0x4
    3ad0:	ae450513          	addi	a0,a0,-1308 # 75b0 <malloc+0x15f0>
    3ad4:	00002097          	auipc	ra,0x2
    3ad8:	42e080e7          	jalr	1070(ra) # 5f02 <printf>
    3adc:	4505                	li	a0,1
    3ade:	00002097          	auipc	ra,0x2
    3ae2:	084080e7          	jalr	132(ra) # 5b62 <exit>
    3ae6:	85ca                	mv	a1,s2
    3ae8:	00004517          	auipc	a0,0x4
    3aec:	ae850513          	addi	a0,a0,-1304 # 75d0 <malloc+0x1610>
    3af0:	00002097          	auipc	ra,0x2
    3af4:	412080e7          	jalr	1042(ra) # 5f02 <printf>
    3af8:	4505                	li	a0,1
    3afa:	00002097          	auipc	ra,0x2
    3afe:	068080e7          	jalr	104(ra) # 5b62 <exit>
    3b02:	85ca                	mv	a1,s2
    3b04:	00004517          	auipc	a0,0x4
    3b08:	af450513          	addi	a0,a0,-1292 # 75f8 <malloc+0x1638>
    3b0c:	00002097          	auipc	ra,0x2
    3b10:	3f6080e7          	jalr	1014(ra) # 5f02 <printf>
    3b14:	4505                	li	a0,1
    3b16:	00002097          	auipc	ra,0x2
    3b1a:	04c080e7          	jalr	76(ra) # 5b62 <exit>
    3b1e:	85ca                	mv	a1,s2
    3b20:	00004517          	auipc	a0,0x4
    3b24:	b0050513          	addi	a0,a0,-1280 # 7620 <malloc+0x1660>
    3b28:	00002097          	auipc	ra,0x2
    3b2c:	3da080e7          	jalr	986(ra) # 5f02 <printf>
    3b30:	4505                	li	a0,1
    3b32:	00002097          	auipc	ra,0x2
    3b36:	030080e7          	jalr	48(ra) # 5b62 <exit>
    3b3a:	85ca                	mv	a1,s2
    3b3c:	00004517          	auipc	a0,0x4
    3b40:	b1450513          	addi	a0,a0,-1260 # 7650 <malloc+0x1690>
    3b44:	00002097          	auipc	ra,0x2
    3b48:	3be080e7          	jalr	958(ra) # 5f02 <printf>
    3b4c:	4505                	li	a0,1
    3b4e:	00002097          	auipc	ra,0x2
    3b52:	014080e7          	jalr	20(ra) # 5b62 <exit>
    3b56:	85ca                	mv	a1,s2
    3b58:	00004517          	auipc	a0,0x4
    3b5c:	b2050513          	addi	a0,a0,-1248 # 7678 <malloc+0x16b8>
    3b60:	00002097          	auipc	ra,0x2
    3b64:	3a2080e7          	jalr	930(ra) # 5f02 <printf>
    3b68:	4505                	li	a0,1
    3b6a:	00002097          	auipc	ra,0x2
    3b6e:	ff8080e7          	jalr	-8(ra) # 5b62 <exit>
    3b72:	85ca                	mv	a1,s2
    3b74:	00004517          	auipc	a0,0x4
    3b78:	b1c50513          	addi	a0,a0,-1252 # 7690 <malloc+0x16d0>
    3b7c:	00002097          	auipc	ra,0x2
    3b80:	386080e7          	jalr	902(ra) # 5f02 <printf>
    3b84:	4505                	li	a0,1
    3b86:	00002097          	auipc	ra,0x2
    3b8a:	fdc080e7          	jalr	-36(ra) # 5b62 <exit>
    3b8e:	85ca                	mv	a1,s2
    3b90:	00004517          	auipc	a0,0x4
    3b94:	b2050513          	addi	a0,a0,-1248 # 76b0 <malloc+0x16f0>
    3b98:	00002097          	auipc	ra,0x2
    3b9c:	36a080e7          	jalr	874(ra) # 5f02 <printf>
    3ba0:	4505                	li	a0,1
    3ba2:	00002097          	auipc	ra,0x2
    3ba6:	fc0080e7          	jalr	-64(ra) # 5b62 <exit>
    3baa:	85ca                	mv	a1,s2
    3bac:	00004517          	auipc	a0,0x4
    3bb0:	b2450513          	addi	a0,a0,-1244 # 76d0 <malloc+0x1710>
    3bb4:	00002097          	auipc	ra,0x2
    3bb8:	34e080e7          	jalr	846(ra) # 5f02 <printf>
    3bbc:	4505                	li	a0,1
    3bbe:	00002097          	auipc	ra,0x2
    3bc2:	fa4080e7          	jalr	-92(ra) # 5b62 <exit>
    3bc6:	85ca                	mv	a1,s2
    3bc8:	00004517          	auipc	a0,0x4
    3bcc:	b4850513          	addi	a0,a0,-1208 # 7710 <malloc+0x1750>
    3bd0:	00002097          	auipc	ra,0x2
    3bd4:	332080e7          	jalr	818(ra) # 5f02 <printf>
    3bd8:	4505                	li	a0,1
    3bda:	00002097          	auipc	ra,0x2
    3bde:	f88080e7          	jalr	-120(ra) # 5b62 <exit>
    3be2:	85ca                	mv	a1,s2
    3be4:	00004517          	auipc	a0,0x4
    3be8:	b5c50513          	addi	a0,a0,-1188 # 7740 <malloc+0x1780>
    3bec:	00002097          	auipc	ra,0x2
    3bf0:	316080e7          	jalr	790(ra) # 5f02 <printf>
    3bf4:	4505                	li	a0,1
    3bf6:	00002097          	auipc	ra,0x2
    3bfa:	f6c080e7          	jalr	-148(ra) # 5b62 <exit>
    3bfe:	85ca                	mv	a1,s2
    3c00:	00004517          	auipc	a0,0x4
    3c04:	b6050513          	addi	a0,a0,-1184 # 7760 <malloc+0x17a0>
    3c08:	00002097          	auipc	ra,0x2
    3c0c:	2fa080e7          	jalr	762(ra) # 5f02 <printf>
    3c10:	4505                	li	a0,1
    3c12:	00002097          	auipc	ra,0x2
    3c16:	f50080e7          	jalr	-176(ra) # 5b62 <exit>
    3c1a:	85ca                	mv	a1,s2
    3c1c:	00004517          	auipc	a0,0x4
    3c20:	b6450513          	addi	a0,a0,-1180 # 7780 <malloc+0x17c0>
    3c24:	00002097          	auipc	ra,0x2
    3c28:	2de080e7          	jalr	734(ra) # 5f02 <printf>
    3c2c:	4505                	li	a0,1
    3c2e:	00002097          	auipc	ra,0x2
    3c32:	f34080e7          	jalr	-204(ra) # 5b62 <exit>
    3c36:	85ca                	mv	a1,s2
    3c38:	00004517          	auipc	a0,0x4
    3c3c:	b6850513          	addi	a0,a0,-1176 # 77a0 <malloc+0x17e0>
    3c40:	00002097          	auipc	ra,0x2
    3c44:	2c2080e7          	jalr	706(ra) # 5f02 <printf>
    3c48:	4505                	li	a0,1
    3c4a:	00002097          	auipc	ra,0x2
    3c4e:	f18080e7          	jalr	-232(ra) # 5b62 <exit>
    3c52:	85ca                	mv	a1,s2
    3c54:	00004517          	auipc	a0,0x4
    3c58:	b7c50513          	addi	a0,a0,-1156 # 77d0 <malloc+0x1810>
    3c5c:	00002097          	auipc	ra,0x2
    3c60:	2a6080e7          	jalr	678(ra) # 5f02 <printf>
    3c64:	4505                	li	a0,1
    3c66:	00002097          	auipc	ra,0x2
    3c6a:	efc080e7          	jalr	-260(ra) # 5b62 <exit>
    3c6e:	85ca                	mv	a1,s2
    3c70:	00004517          	auipc	a0,0x4
    3c74:	b8850513          	addi	a0,a0,-1144 # 77f8 <malloc+0x1838>
    3c78:	00002097          	auipc	ra,0x2
    3c7c:	28a080e7          	jalr	650(ra) # 5f02 <printf>
    3c80:	4505                	li	a0,1
    3c82:	00002097          	auipc	ra,0x2
    3c86:	ee0080e7          	jalr	-288(ra) # 5b62 <exit>
    3c8a:	85ca                	mv	a1,s2
    3c8c:	00004517          	auipc	a0,0x4
    3c90:	b9450513          	addi	a0,a0,-1132 # 7820 <malloc+0x1860>
    3c94:	00002097          	auipc	ra,0x2
    3c98:	26e080e7          	jalr	622(ra) # 5f02 <printf>
    3c9c:	4505                	li	a0,1
    3c9e:	00002097          	auipc	ra,0x2
    3ca2:	ec4080e7          	jalr	-316(ra) # 5b62 <exit>
    3ca6:	85ca                	mv	a1,s2
    3ca8:	00004517          	auipc	a0,0x4
    3cac:	ba050513          	addi	a0,a0,-1120 # 7848 <malloc+0x1888>
    3cb0:	00002097          	auipc	ra,0x2
    3cb4:	252080e7          	jalr	594(ra) # 5f02 <printf>
    3cb8:	4505                	li	a0,1
    3cba:	00002097          	auipc	ra,0x2
    3cbe:	ea8080e7          	jalr	-344(ra) # 5b62 <exit>
    3cc2:	85ca                	mv	a1,s2
    3cc4:	00004517          	auipc	a0,0x4
    3cc8:	ba450513          	addi	a0,a0,-1116 # 7868 <malloc+0x18a8>
    3ccc:	00002097          	auipc	ra,0x2
    3cd0:	236080e7          	jalr	566(ra) # 5f02 <printf>
    3cd4:	4505                	li	a0,1
    3cd6:	00002097          	auipc	ra,0x2
    3cda:	e8c080e7          	jalr	-372(ra) # 5b62 <exit>
    3cde:	85ca                	mv	a1,s2
    3ce0:	00004517          	auipc	a0,0x4
    3ce4:	ba850513          	addi	a0,a0,-1112 # 7888 <malloc+0x18c8>
    3ce8:	00002097          	auipc	ra,0x2
    3cec:	21a080e7          	jalr	538(ra) # 5f02 <printf>
    3cf0:	4505                	li	a0,1
    3cf2:	00002097          	auipc	ra,0x2
    3cf6:	e70080e7          	jalr	-400(ra) # 5b62 <exit>
    3cfa:	85ca                	mv	a1,s2
    3cfc:	00004517          	auipc	a0,0x4
    3d00:	bb450513          	addi	a0,a0,-1100 # 78b0 <malloc+0x18f0>
    3d04:	00002097          	auipc	ra,0x2
    3d08:	1fe080e7          	jalr	510(ra) # 5f02 <printf>
    3d0c:	4505                	li	a0,1
    3d0e:	00002097          	auipc	ra,0x2
    3d12:	e54080e7          	jalr	-428(ra) # 5b62 <exit>
    3d16:	85ca                	mv	a1,s2
    3d18:	00004517          	auipc	a0,0x4
    3d1c:	bb850513          	addi	a0,a0,-1096 # 78d0 <malloc+0x1910>
    3d20:	00002097          	auipc	ra,0x2
    3d24:	1e2080e7          	jalr	482(ra) # 5f02 <printf>
    3d28:	4505                	li	a0,1
    3d2a:	00002097          	auipc	ra,0x2
    3d2e:	e38080e7          	jalr	-456(ra) # 5b62 <exit>
    3d32:	85ca                	mv	a1,s2
    3d34:	00004517          	auipc	a0,0x4
    3d38:	bbc50513          	addi	a0,a0,-1092 # 78f0 <malloc+0x1930>
    3d3c:	00002097          	auipc	ra,0x2
    3d40:	1c6080e7          	jalr	454(ra) # 5f02 <printf>
    3d44:	4505                	li	a0,1
    3d46:	00002097          	auipc	ra,0x2
    3d4a:	e1c080e7          	jalr	-484(ra) # 5b62 <exit>
    3d4e:	85ca                	mv	a1,s2
    3d50:	00004517          	auipc	a0,0x4
    3d54:	bc850513          	addi	a0,a0,-1080 # 7918 <malloc+0x1958>
    3d58:	00002097          	auipc	ra,0x2
    3d5c:	1aa080e7          	jalr	426(ra) # 5f02 <printf>
    3d60:	4505                	li	a0,1
    3d62:	00002097          	auipc	ra,0x2
    3d66:	e00080e7          	jalr	-512(ra) # 5b62 <exit>
    3d6a:	85ca                	mv	a1,s2
    3d6c:	00004517          	auipc	a0,0x4
    3d70:	84450513          	addi	a0,a0,-1980 # 75b0 <malloc+0x15f0>
    3d74:	00002097          	auipc	ra,0x2
    3d78:	18e080e7          	jalr	398(ra) # 5f02 <printf>
    3d7c:	4505                	li	a0,1
    3d7e:	00002097          	auipc	ra,0x2
    3d82:	de4080e7          	jalr	-540(ra) # 5b62 <exit>
    3d86:	85ca                	mv	a1,s2
    3d88:	00004517          	auipc	a0,0x4
    3d8c:	bb050513          	addi	a0,a0,-1104 # 7938 <malloc+0x1978>
    3d90:	00002097          	auipc	ra,0x2
    3d94:	172080e7          	jalr	370(ra) # 5f02 <printf>
    3d98:	4505                	li	a0,1
    3d9a:	00002097          	auipc	ra,0x2
    3d9e:	dc8080e7          	jalr	-568(ra) # 5b62 <exit>
    3da2:	85ca                	mv	a1,s2
    3da4:	00004517          	auipc	a0,0x4
    3da8:	bb450513          	addi	a0,a0,-1100 # 7958 <malloc+0x1998>
    3dac:	00002097          	auipc	ra,0x2
    3db0:	156080e7          	jalr	342(ra) # 5f02 <printf>
    3db4:	4505                	li	a0,1
    3db6:	00002097          	auipc	ra,0x2
    3dba:	dac080e7          	jalr	-596(ra) # 5b62 <exit>
    3dbe:	85ca                	mv	a1,s2
    3dc0:	00004517          	auipc	a0,0x4
    3dc4:	bc850513          	addi	a0,a0,-1080 # 7988 <malloc+0x19c8>
    3dc8:	00002097          	auipc	ra,0x2
    3dcc:	13a080e7          	jalr	314(ra) # 5f02 <printf>
    3dd0:	4505                	li	a0,1
    3dd2:	00002097          	auipc	ra,0x2
    3dd6:	d90080e7          	jalr	-624(ra) # 5b62 <exit>
    3dda:	85ca                	mv	a1,s2
    3ddc:	00004517          	auipc	a0,0x4
    3de0:	bcc50513          	addi	a0,a0,-1076 # 79a8 <malloc+0x19e8>
    3de4:	00002097          	auipc	ra,0x2
    3de8:	11e080e7          	jalr	286(ra) # 5f02 <printf>
    3dec:	4505                	li	a0,1
    3dee:	00002097          	auipc	ra,0x2
    3df2:	d74080e7          	jalr	-652(ra) # 5b62 <exit>

0000000000003df6 <rmdot>:
    3df6:	1101                	addi	sp,sp,-32
    3df8:	ec06                	sd	ra,24(sp)
    3dfa:	e822                	sd	s0,16(sp)
    3dfc:	e426                	sd	s1,8(sp)
    3dfe:	1000                	addi	s0,sp,32
    3e00:	84aa                	mv	s1,a0
    3e02:	00004517          	auipc	a0,0x4
    3e06:	bbe50513          	addi	a0,a0,-1090 # 79c0 <malloc+0x1a00>
    3e0a:	00002097          	auipc	ra,0x2
    3e0e:	dc0080e7          	jalr	-576(ra) # 5bca <mkdir>
    3e12:	e549                	bnez	a0,3e9c <rmdot+0xa6>
    3e14:	00004517          	auipc	a0,0x4
    3e18:	bac50513          	addi	a0,a0,-1108 # 79c0 <malloc+0x1a00>
    3e1c:	00002097          	auipc	ra,0x2
    3e20:	db6080e7          	jalr	-586(ra) # 5bd2 <chdir>
    3e24:	e951                	bnez	a0,3eb8 <rmdot+0xc2>
    3e26:	00003517          	auipc	a0,0x3
    3e2a:	9ca50513          	addi	a0,a0,-1590 # 67f0 <malloc+0x830>
    3e2e:	00002097          	auipc	ra,0x2
    3e32:	d84080e7          	jalr	-636(ra) # 5bb2 <unlink>
    3e36:	cd59                	beqz	a0,3ed4 <rmdot+0xde>
    3e38:	00003517          	auipc	a0,0x3
    3e3c:	5e050513          	addi	a0,a0,1504 # 7418 <malloc+0x1458>
    3e40:	00002097          	auipc	ra,0x2
    3e44:	d72080e7          	jalr	-654(ra) # 5bb2 <unlink>
    3e48:	c545                	beqz	a0,3ef0 <rmdot+0xfa>
    3e4a:	00003517          	auipc	a0,0x3
    3e4e:	57650513          	addi	a0,a0,1398 # 73c0 <malloc+0x1400>
    3e52:	00002097          	auipc	ra,0x2
    3e56:	d80080e7          	jalr	-640(ra) # 5bd2 <chdir>
    3e5a:	e94d                	bnez	a0,3f0c <rmdot+0x116>
    3e5c:	00004517          	auipc	a0,0x4
    3e60:	bcc50513          	addi	a0,a0,-1076 # 7a28 <malloc+0x1a68>
    3e64:	00002097          	auipc	ra,0x2
    3e68:	d4e080e7          	jalr	-690(ra) # 5bb2 <unlink>
    3e6c:	cd55                	beqz	a0,3f28 <rmdot+0x132>
    3e6e:	00004517          	auipc	a0,0x4
    3e72:	be250513          	addi	a0,a0,-1054 # 7a50 <malloc+0x1a90>
    3e76:	00002097          	auipc	ra,0x2
    3e7a:	d3c080e7          	jalr	-708(ra) # 5bb2 <unlink>
    3e7e:	c179                	beqz	a0,3f44 <rmdot+0x14e>
    3e80:	00004517          	auipc	a0,0x4
    3e84:	b4050513          	addi	a0,a0,-1216 # 79c0 <malloc+0x1a00>
    3e88:	00002097          	auipc	ra,0x2
    3e8c:	d2a080e7          	jalr	-726(ra) # 5bb2 <unlink>
    3e90:	e961                	bnez	a0,3f60 <rmdot+0x16a>
    3e92:	60e2                	ld	ra,24(sp)
    3e94:	6442                	ld	s0,16(sp)
    3e96:	64a2                	ld	s1,8(sp)
    3e98:	6105                	addi	sp,sp,32
    3e9a:	8082                	ret
    3e9c:	85a6                	mv	a1,s1
    3e9e:	00004517          	auipc	a0,0x4
    3ea2:	b2a50513          	addi	a0,a0,-1238 # 79c8 <malloc+0x1a08>
    3ea6:	00002097          	auipc	ra,0x2
    3eaa:	05c080e7          	jalr	92(ra) # 5f02 <printf>
    3eae:	4505                	li	a0,1
    3eb0:	00002097          	auipc	ra,0x2
    3eb4:	cb2080e7          	jalr	-846(ra) # 5b62 <exit>
    3eb8:	85a6                	mv	a1,s1
    3eba:	00004517          	auipc	a0,0x4
    3ebe:	b2650513          	addi	a0,a0,-1242 # 79e0 <malloc+0x1a20>
    3ec2:	00002097          	auipc	ra,0x2
    3ec6:	040080e7          	jalr	64(ra) # 5f02 <printf>
    3eca:	4505                	li	a0,1
    3ecc:	00002097          	auipc	ra,0x2
    3ed0:	c96080e7          	jalr	-874(ra) # 5b62 <exit>
    3ed4:	85a6                	mv	a1,s1
    3ed6:	00004517          	auipc	a0,0x4
    3eda:	b2250513          	addi	a0,a0,-1246 # 79f8 <malloc+0x1a38>
    3ede:	00002097          	auipc	ra,0x2
    3ee2:	024080e7          	jalr	36(ra) # 5f02 <printf>
    3ee6:	4505                	li	a0,1
    3ee8:	00002097          	auipc	ra,0x2
    3eec:	c7a080e7          	jalr	-902(ra) # 5b62 <exit>
    3ef0:	85a6                	mv	a1,s1
    3ef2:	00004517          	auipc	a0,0x4
    3ef6:	b1e50513          	addi	a0,a0,-1250 # 7a10 <malloc+0x1a50>
    3efa:	00002097          	auipc	ra,0x2
    3efe:	008080e7          	jalr	8(ra) # 5f02 <printf>
    3f02:	4505                	li	a0,1
    3f04:	00002097          	auipc	ra,0x2
    3f08:	c5e080e7          	jalr	-930(ra) # 5b62 <exit>
    3f0c:	85a6                	mv	a1,s1
    3f0e:	00003517          	auipc	a0,0x3
    3f12:	4ba50513          	addi	a0,a0,1210 # 73c8 <malloc+0x1408>
    3f16:	00002097          	auipc	ra,0x2
    3f1a:	fec080e7          	jalr	-20(ra) # 5f02 <printf>
    3f1e:	4505                	li	a0,1
    3f20:	00002097          	auipc	ra,0x2
    3f24:	c42080e7          	jalr	-958(ra) # 5b62 <exit>
    3f28:	85a6                	mv	a1,s1
    3f2a:	00004517          	auipc	a0,0x4
    3f2e:	b0650513          	addi	a0,a0,-1274 # 7a30 <malloc+0x1a70>
    3f32:	00002097          	auipc	ra,0x2
    3f36:	fd0080e7          	jalr	-48(ra) # 5f02 <printf>
    3f3a:	4505                	li	a0,1
    3f3c:	00002097          	auipc	ra,0x2
    3f40:	c26080e7          	jalr	-986(ra) # 5b62 <exit>
    3f44:	85a6                	mv	a1,s1
    3f46:	00004517          	auipc	a0,0x4
    3f4a:	b1250513          	addi	a0,a0,-1262 # 7a58 <malloc+0x1a98>
    3f4e:	00002097          	auipc	ra,0x2
    3f52:	fb4080e7          	jalr	-76(ra) # 5f02 <printf>
    3f56:	4505                	li	a0,1
    3f58:	00002097          	auipc	ra,0x2
    3f5c:	c0a080e7          	jalr	-1014(ra) # 5b62 <exit>
    3f60:	85a6                	mv	a1,s1
    3f62:	00004517          	auipc	a0,0x4
    3f66:	b1650513          	addi	a0,a0,-1258 # 7a78 <malloc+0x1ab8>
    3f6a:	00002097          	auipc	ra,0x2
    3f6e:	f98080e7          	jalr	-104(ra) # 5f02 <printf>
    3f72:	4505                	li	a0,1
    3f74:	00002097          	auipc	ra,0x2
    3f78:	bee080e7          	jalr	-1042(ra) # 5b62 <exit>

0000000000003f7c <dirfile>:
    3f7c:	1101                	addi	sp,sp,-32
    3f7e:	ec06                	sd	ra,24(sp)
    3f80:	e822                	sd	s0,16(sp)
    3f82:	e426                	sd	s1,8(sp)
    3f84:	e04a                	sd	s2,0(sp)
    3f86:	1000                	addi	s0,sp,32
    3f88:	892a                	mv	s2,a0
    3f8a:	20000593          	li	a1,512
    3f8e:	00004517          	auipc	a0,0x4
    3f92:	b0a50513          	addi	a0,a0,-1270 # 7a98 <malloc+0x1ad8>
    3f96:	00002097          	auipc	ra,0x2
    3f9a:	c0c080e7          	jalr	-1012(ra) # 5ba2 <open>
    3f9e:	0e054d63          	bltz	a0,4098 <dirfile+0x11c>
    3fa2:	00002097          	auipc	ra,0x2
    3fa6:	be8080e7          	jalr	-1048(ra) # 5b8a <close>
    3faa:	00004517          	auipc	a0,0x4
    3fae:	aee50513          	addi	a0,a0,-1298 # 7a98 <malloc+0x1ad8>
    3fb2:	00002097          	auipc	ra,0x2
    3fb6:	c20080e7          	jalr	-992(ra) # 5bd2 <chdir>
    3fba:	cd6d                	beqz	a0,40b4 <dirfile+0x138>
    3fbc:	4581                	li	a1,0
    3fbe:	00004517          	auipc	a0,0x4
    3fc2:	b2250513          	addi	a0,a0,-1246 # 7ae0 <malloc+0x1b20>
    3fc6:	00002097          	auipc	ra,0x2
    3fca:	bdc080e7          	jalr	-1060(ra) # 5ba2 <open>
    3fce:	10055163          	bgez	a0,40d0 <dirfile+0x154>
    3fd2:	20000593          	li	a1,512
    3fd6:	00004517          	auipc	a0,0x4
    3fda:	b0a50513          	addi	a0,a0,-1270 # 7ae0 <malloc+0x1b20>
    3fde:	00002097          	auipc	ra,0x2
    3fe2:	bc4080e7          	jalr	-1084(ra) # 5ba2 <open>
    3fe6:	10055363          	bgez	a0,40ec <dirfile+0x170>
    3fea:	00004517          	auipc	a0,0x4
    3fee:	af650513          	addi	a0,a0,-1290 # 7ae0 <malloc+0x1b20>
    3ff2:	00002097          	auipc	ra,0x2
    3ff6:	bd8080e7          	jalr	-1064(ra) # 5bca <mkdir>
    3ffa:	10050763          	beqz	a0,4108 <dirfile+0x18c>
    3ffe:	00004517          	auipc	a0,0x4
    4002:	ae250513          	addi	a0,a0,-1310 # 7ae0 <malloc+0x1b20>
    4006:	00002097          	auipc	ra,0x2
    400a:	bac080e7          	jalr	-1108(ra) # 5bb2 <unlink>
    400e:	10050b63          	beqz	a0,4124 <dirfile+0x1a8>
    4012:	00004597          	auipc	a1,0x4
    4016:	ace58593          	addi	a1,a1,-1330 # 7ae0 <malloc+0x1b20>
    401a:	00002517          	auipc	a0,0x2
    401e:	2c650513          	addi	a0,a0,710 # 62e0 <malloc+0x320>
    4022:	00002097          	auipc	ra,0x2
    4026:	ba0080e7          	jalr	-1120(ra) # 5bc2 <link>
    402a:	10050b63          	beqz	a0,4140 <dirfile+0x1c4>
    402e:	00004517          	auipc	a0,0x4
    4032:	a6a50513          	addi	a0,a0,-1430 # 7a98 <malloc+0x1ad8>
    4036:	00002097          	auipc	ra,0x2
    403a:	b7c080e7          	jalr	-1156(ra) # 5bb2 <unlink>
    403e:	10051f63          	bnez	a0,415c <dirfile+0x1e0>
    4042:	4589                	li	a1,2
    4044:	00002517          	auipc	a0,0x2
    4048:	7ac50513          	addi	a0,a0,1964 # 67f0 <malloc+0x830>
    404c:	00002097          	auipc	ra,0x2
    4050:	b56080e7          	jalr	-1194(ra) # 5ba2 <open>
    4054:	12055263          	bgez	a0,4178 <dirfile+0x1fc>
    4058:	4581                	li	a1,0
    405a:	00002517          	auipc	a0,0x2
    405e:	79650513          	addi	a0,a0,1942 # 67f0 <malloc+0x830>
    4062:	00002097          	auipc	ra,0x2
    4066:	b40080e7          	jalr	-1216(ra) # 5ba2 <open>
    406a:	84aa                	mv	s1,a0
    406c:	4605                	li	a2,1
    406e:	00002597          	auipc	a1,0x2
    4072:	10a58593          	addi	a1,a1,266 # 6178 <malloc+0x1b8>
    4076:	00002097          	auipc	ra,0x2
    407a:	b0c080e7          	jalr	-1268(ra) # 5b82 <write>
    407e:	10a04b63          	bgtz	a0,4194 <dirfile+0x218>
    4082:	8526                	mv	a0,s1
    4084:	00002097          	auipc	ra,0x2
    4088:	b06080e7          	jalr	-1274(ra) # 5b8a <close>
    408c:	60e2                	ld	ra,24(sp)
    408e:	6442                	ld	s0,16(sp)
    4090:	64a2                	ld	s1,8(sp)
    4092:	6902                	ld	s2,0(sp)
    4094:	6105                	addi	sp,sp,32
    4096:	8082                	ret
    4098:	85ca                	mv	a1,s2
    409a:	00004517          	auipc	a0,0x4
    409e:	a0650513          	addi	a0,a0,-1530 # 7aa0 <malloc+0x1ae0>
    40a2:	00002097          	auipc	ra,0x2
    40a6:	e60080e7          	jalr	-416(ra) # 5f02 <printf>
    40aa:	4505                	li	a0,1
    40ac:	00002097          	auipc	ra,0x2
    40b0:	ab6080e7          	jalr	-1354(ra) # 5b62 <exit>
    40b4:	85ca                	mv	a1,s2
    40b6:	00004517          	auipc	a0,0x4
    40ba:	a0a50513          	addi	a0,a0,-1526 # 7ac0 <malloc+0x1b00>
    40be:	00002097          	auipc	ra,0x2
    40c2:	e44080e7          	jalr	-444(ra) # 5f02 <printf>
    40c6:	4505                	li	a0,1
    40c8:	00002097          	auipc	ra,0x2
    40cc:	a9a080e7          	jalr	-1382(ra) # 5b62 <exit>
    40d0:	85ca                	mv	a1,s2
    40d2:	00004517          	auipc	a0,0x4
    40d6:	a1e50513          	addi	a0,a0,-1506 # 7af0 <malloc+0x1b30>
    40da:	00002097          	auipc	ra,0x2
    40de:	e28080e7          	jalr	-472(ra) # 5f02 <printf>
    40e2:	4505                	li	a0,1
    40e4:	00002097          	auipc	ra,0x2
    40e8:	a7e080e7          	jalr	-1410(ra) # 5b62 <exit>
    40ec:	85ca                	mv	a1,s2
    40ee:	00004517          	auipc	a0,0x4
    40f2:	a0250513          	addi	a0,a0,-1534 # 7af0 <malloc+0x1b30>
    40f6:	00002097          	auipc	ra,0x2
    40fa:	e0c080e7          	jalr	-500(ra) # 5f02 <printf>
    40fe:	4505                	li	a0,1
    4100:	00002097          	auipc	ra,0x2
    4104:	a62080e7          	jalr	-1438(ra) # 5b62 <exit>
    4108:	85ca                	mv	a1,s2
    410a:	00004517          	auipc	a0,0x4
    410e:	a0e50513          	addi	a0,a0,-1522 # 7b18 <malloc+0x1b58>
    4112:	00002097          	auipc	ra,0x2
    4116:	df0080e7          	jalr	-528(ra) # 5f02 <printf>
    411a:	4505                	li	a0,1
    411c:	00002097          	auipc	ra,0x2
    4120:	a46080e7          	jalr	-1466(ra) # 5b62 <exit>
    4124:	85ca                	mv	a1,s2
    4126:	00004517          	auipc	a0,0x4
    412a:	a1a50513          	addi	a0,a0,-1510 # 7b40 <malloc+0x1b80>
    412e:	00002097          	auipc	ra,0x2
    4132:	dd4080e7          	jalr	-556(ra) # 5f02 <printf>
    4136:	4505                	li	a0,1
    4138:	00002097          	auipc	ra,0x2
    413c:	a2a080e7          	jalr	-1494(ra) # 5b62 <exit>
    4140:	85ca                	mv	a1,s2
    4142:	00004517          	auipc	a0,0x4
    4146:	a2650513          	addi	a0,a0,-1498 # 7b68 <malloc+0x1ba8>
    414a:	00002097          	auipc	ra,0x2
    414e:	db8080e7          	jalr	-584(ra) # 5f02 <printf>
    4152:	4505                	li	a0,1
    4154:	00002097          	auipc	ra,0x2
    4158:	a0e080e7          	jalr	-1522(ra) # 5b62 <exit>
    415c:	85ca                	mv	a1,s2
    415e:	00004517          	auipc	a0,0x4
    4162:	a3250513          	addi	a0,a0,-1486 # 7b90 <malloc+0x1bd0>
    4166:	00002097          	auipc	ra,0x2
    416a:	d9c080e7          	jalr	-612(ra) # 5f02 <printf>
    416e:	4505                	li	a0,1
    4170:	00002097          	auipc	ra,0x2
    4174:	9f2080e7          	jalr	-1550(ra) # 5b62 <exit>
    4178:	85ca                	mv	a1,s2
    417a:	00004517          	auipc	a0,0x4
    417e:	a3650513          	addi	a0,a0,-1482 # 7bb0 <malloc+0x1bf0>
    4182:	00002097          	auipc	ra,0x2
    4186:	d80080e7          	jalr	-640(ra) # 5f02 <printf>
    418a:	4505                	li	a0,1
    418c:	00002097          	auipc	ra,0x2
    4190:	9d6080e7          	jalr	-1578(ra) # 5b62 <exit>
    4194:	85ca                	mv	a1,s2
    4196:	00004517          	auipc	a0,0x4
    419a:	a4250513          	addi	a0,a0,-1470 # 7bd8 <malloc+0x1c18>
    419e:	00002097          	auipc	ra,0x2
    41a2:	d64080e7          	jalr	-668(ra) # 5f02 <printf>
    41a6:	4505                	li	a0,1
    41a8:	00002097          	auipc	ra,0x2
    41ac:	9ba080e7          	jalr	-1606(ra) # 5b62 <exit>

00000000000041b0 <iref>:
    41b0:	7139                	addi	sp,sp,-64
    41b2:	fc06                	sd	ra,56(sp)
    41b4:	f822                	sd	s0,48(sp)
    41b6:	f426                	sd	s1,40(sp)
    41b8:	f04a                	sd	s2,32(sp)
    41ba:	ec4e                	sd	s3,24(sp)
    41bc:	e852                	sd	s4,16(sp)
    41be:	e456                	sd	s5,8(sp)
    41c0:	e05a                	sd	s6,0(sp)
    41c2:	0080                	addi	s0,sp,64
    41c4:	8b2a                	mv	s6,a0
    41c6:	03300913          	li	s2,51
    41ca:	00004a17          	auipc	s4,0x4
    41ce:	a26a0a13          	addi	s4,s4,-1498 # 7bf0 <malloc+0x1c30>
    41d2:	00003497          	auipc	s1,0x3
    41d6:	52648493          	addi	s1,s1,1318 # 76f8 <malloc+0x1738>
    41da:	00002a97          	auipc	s5,0x2
    41de:	106a8a93          	addi	s5,s5,262 # 62e0 <malloc+0x320>
    41e2:	00004997          	auipc	s3,0x4
    41e6:	90698993          	addi	s3,s3,-1786 # 7ae8 <malloc+0x1b28>
    41ea:	a891                	j	423e <iref+0x8e>
    41ec:	85da                	mv	a1,s6
    41ee:	00004517          	auipc	a0,0x4
    41f2:	a0a50513          	addi	a0,a0,-1526 # 7bf8 <malloc+0x1c38>
    41f6:	00002097          	auipc	ra,0x2
    41fa:	d0c080e7          	jalr	-756(ra) # 5f02 <printf>
    41fe:	4505                	li	a0,1
    4200:	00002097          	auipc	ra,0x2
    4204:	962080e7          	jalr	-1694(ra) # 5b62 <exit>
    4208:	85da                	mv	a1,s6
    420a:	00004517          	auipc	a0,0x4
    420e:	a0650513          	addi	a0,a0,-1530 # 7c10 <malloc+0x1c50>
    4212:	00002097          	auipc	ra,0x2
    4216:	cf0080e7          	jalr	-784(ra) # 5f02 <printf>
    421a:	4505                	li	a0,1
    421c:	00002097          	auipc	ra,0x2
    4220:	946080e7          	jalr	-1722(ra) # 5b62 <exit>
    4224:	00002097          	auipc	ra,0x2
    4228:	966080e7          	jalr	-1690(ra) # 5b8a <close>
    422c:	a889                	j	427e <iref+0xce>
    422e:	854e                	mv	a0,s3
    4230:	00002097          	auipc	ra,0x2
    4234:	982080e7          	jalr	-1662(ra) # 5bb2 <unlink>
    4238:	397d                	addiw	s2,s2,-1
    423a:	06090063          	beqz	s2,429a <iref+0xea>
    423e:	8552                	mv	a0,s4
    4240:	00002097          	auipc	ra,0x2
    4244:	98a080e7          	jalr	-1654(ra) # 5bca <mkdir>
    4248:	f155                	bnez	a0,41ec <iref+0x3c>
    424a:	8552                	mv	a0,s4
    424c:	00002097          	auipc	ra,0x2
    4250:	986080e7          	jalr	-1658(ra) # 5bd2 <chdir>
    4254:	f955                	bnez	a0,4208 <iref+0x58>
    4256:	8526                	mv	a0,s1
    4258:	00002097          	auipc	ra,0x2
    425c:	972080e7          	jalr	-1678(ra) # 5bca <mkdir>
    4260:	85a6                	mv	a1,s1
    4262:	8556                	mv	a0,s5
    4264:	00002097          	auipc	ra,0x2
    4268:	95e080e7          	jalr	-1698(ra) # 5bc2 <link>
    426c:	20000593          	li	a1,512
    4270:	8526                	mv	a0,s1
    4272:	00002097          	auipc	ra,0x2
    4276:	930080e7          	jalr	-1744(ra) # 5ba2 <open>
    427a:	fa0555e3          	bgez	a0,4224 <iref+0x74>
    427e:	20000593          	li	a1,512
    4282:	854e                	mv	a0,s3
    4284:	00002097          	auipc	ra,0x2
    4288:	91e080e7          	jalr	-1762(ra) # 5ba2 <open>
    428c:	fa0541e3          	bltz	a0,422e <iref+0x7e>
    4290:	00002097          	auipc	ra,0x2
    4294:	8fa080e7          	jalr	-1798(ra) # 5b8a <close>
    4298:	bf59                	j	422e <iref+0x7e>
    429a:	03300493          	li	s1,51
    429e:	00003997          	auipc	s3,0x3
    42a2:	17a98993          	addi	s3,s3,378 # 7418 <malloc+0x1458>
    42a6:	00004917          	auipc	s2,0x4
    42aa:	94a90913          	addi	s2,s2,-1718 # 7bf0 <malloc+0x1c30>
    42ae:	854e                	mv	a0,s3
    42b0:	00002097          	auipc	ra,0x2
    42b4:	922080e7          	jalr	-1758(ra) # 5bd2 <chdir>
    42b8:	854a                	mv	a0,s2
    42ba:	00002097          	auipc	ra,0x2
    42be:	8f8080e7          	jalr	-1800(ra) # 5bb2 <unlink>
    42c2:	34fd                	addiw	s1,s1,-1
    42c4:	f4ed                	bnez	s1,42ae <iref+0xfe>
    42c6:	00003517          	auipc	a0,0x3
    42ca:	0fa50513          	addi	a0,a0,250 # 73c0 <malloc+0x1400>
    42ce:	00002097          	auipc	ra,0x2
    42d2:	904080e7          	jalr	-1788(ra) # 5bd2 <chdir>
    42d6:	70e2                	ld	ra,56(sp)
    42d8:	7442                	ld	s0,48(sp)
    42da:	74a2                	ld	s1,40(sp)
    42dc:	7902                	ld	s2,32(sp)
    42de:	69e2                	ld	s3,24(sp)
    42e0:	6a42                	ld	s4,16(sp)
    42e2:	6aa2                	ld	s5,8(sp)
    42e4:	6b02                	ld	s6,0(sp)
